cblocks.log.log
TrainingLog
p1
(tRp2
I0
(dp3
S'train_reconstruct_error'
p4
cnumpy.core.multiarray
_reconstruct
p5
(cnumpy
ndarray
p6
(I0
tS'b'
tRp7
(I1
(tcnumpy
dtype
p8
(S'f4'
I0
I1
tRp9
(I3
S'<'
NNNI-1
I-1
I0
tbI00
S'y\x95\x08D'
tbssI1
(dp10
sI2
(dp11
sI3
(dp12
sI4
(dp13
sI5
(dp14
sI6
(dp15
sI7
(dp16
sI8
(dp17
sI9
(dp18
sI10
(dp19
sI11
(dp20
sI12
(dp21
sI13
(dp22
sI14
(dp23
sI15
(dp24
sI16
(dp25
sI17
(dp26
sI18
(dp27
sI19
(dp28
sI20
(dp29
sI21
(dp30
sI22
(dp31
sI23
(dp32
sI24
(dp33
sI25
(dp34
sI26
(dp35
sI27
(dp36
sI28
(dp37
sI29
(dp38
sI30
(dp39
sI31
(dp40
sI32
(dp41
sI33
(dp42
sI34
(dp43
sI35
(dp44
sI36
(dp45
sI37
(dp46
sI38
(dp47
sI39
(dp48
sI40
(dp49
sI41
(dp50
sI42
(dp51
sI43
(dp52
sI44
(dp53
sI45
(dp54
sI46
(dp55
sI47
(dp56
sI48
(dp57
sI49
(dp58
sI50
(dp59
sI51
(dp60
sI52
(dp61
sI53
(dp62
sI54
(dp63
sI55
(dp64
sI56
(dp65
sI57
(dp66
sI58
(dp67
sI59
(dp68
sI60
(dp69
sI61
(dp70
sI62
(dp71
sI63
(dp72
sI64
(dp73
sI65
(dp74
sI66
(dp75
sI67
(dp76
sI68
(dp77
sI69
(dp78
sI70
(dp79
sI71
(dp80
sI72
(dp81
sI73
(dp82
sI74
(dp83
sI75
(dp84
sI76
(dp85
sI77
(dp86
sI78
(dp87
sI79
(dp88
sI80
(dp89
sI81
(dp90
sI82
(dp91
sI83
(dp92
sI84
(dp93
sI85
(dp94
sI86
(dp95
sI87
(dp96
sI88
(dp97
sI89
(dp98
sI90
(dp99
sI91
(dp100
sI92
(dp101
sI93
(dp102
sI94
(dp103
sI95
(dp104
sI96
(dp105
sI97
(dp106
sI98
(dp107
sI99
(dp108
sI100
(dp109
sI101
(dp110
sI102
(dp111
sI103
(dp112
sI104
(dp113
sI105
(dp114
sI106
(dp115
sI107
(dp116
sI108
(dp117
sI109
(dp118
sI110
(dp119
sI111
(dp120
sI112
(dp121
sI113
(dp122
sI114
(dp123
sI115
(dp124
sI116
(dp125
sI117
(dp126
sI118
(dp127
sI119
(dp128
sI120
(dp129
sI121
(dp130
sI122
(dp131
sI123
(dp132
sI124
(dp133
sI125
(dp134
sI126
(dp135
sI127
(dp136
sI128
(dp137
sI129
(dp138
sI130
(dp139
sI131
(dp140
sI132
(dp141
sI133
(dp142
sI134
(dp143
sI135
(dp144
sI136
(dp145
sI137
(dp146
sI138
(dp147
sI139
(dp148
sI140
(dp149
sI141
(dp150
sI142
(dp151
sI143
(dp152
sI144
(dp153
sI145
(dp154
sI146
(dp155
sI147
(dp156
sI148
(dp157
sI149
(dp158
sI150
(dp159
sI151
(dp160
sI152
(dp161
sI153
(dp162
sI154
(dp163
sI155
(dp164
sI156
(dp165
sI157
(dp166
sI158
(dp167
sI159
(dp168
sI160
(dp169
sI161
(dp170
sI162
(dp171
sI163
(dp172
sI164
(dp173
sI165
(dp174
sI166
(dp175
sI167
(dp176
sI168
(dp177
sI169
(dp178
sI170
(dp179
sI171
(dp180
sI172
(dp181
sI173
(dp182
sI174
(dp183
sI175
(dp184
sI176
(dp185
sI177
(dp186
sI178
(dp187
sI179
(dp188
sI180
(dp189
sI181
(dp190
sI182
(dp191
sI183
(dp192
sI184
(dp193
sI185
(dp194
sI186
(dp195
sI187
(dp196
sI188
(dp197
sI189
(dp198
sI190
(dp199
sI191
(dp200
sI192
(dp201
sI193
(dp202
sI194
(dp203
sI195
(dp204
sI196
(dp205
sI197
(dp206
sI198
(dp207
sI199
(dp208
sI200
(dp209
sI201
(dp210
sI202
(dp211
sI203
(dp212
sI204
(dp213
sI205
(dp214
sI206
(dp215
sI207
(dp216
sI208
(dp217
sI209
(dp218
sI210
(dp219
sI211
(dp220
sI212
(dp221
sI213
(dp222
sI214
(dp223
sI215
(dp224
sI216
(dp225
sI217
(dp226
sI218
(dp227
sI219
(dp228
sI220
(dp229
sI221
(dp230
sI222
(dp231
sI223
(dp232
sI224
(dp233
sI225
(dp234
sI226
(dp235
sI227
(dp236
sI228
(dp237
sI229
(dp238
sI230
(dp239
sI231
(dp240
sI232
(dp241
sI233
(dp242
sI234
(dp243
sI235
(dp244
sI236
(dp245
sI237
(dp246
sI238
(dp247
sI239
(dp248
sI240
(dp249
sI241
(dp250
sI242
(dp251
sI243
(dp252
sI244
(dp253
sI245
(dp254
sI246
(dp255
sI247
(dp256
sI248
(dp257
sI249
(dp258
sI250
(dp259
sI251
(dp260
sI252
(dp261
sI253
(dp262
sI254
(dp263
sI255
(dp264
sI256
(dp265
sI257
(dp266
sI258
(dp267
sI259
(dp268
sI260
(dp269
sI261
(dp270
sI262
(dp271
sI263
(dp272
sI264
(dp273
sI265
(dp274
sI266
(dp275
sI267
(dp276
sI268
(dp277
sI269
(dp278
sI270
(dp279
sI271
(dp280
sI272
(dp281
sI273
(dp282
sI274
(dp283
sI275
(dp284
sI276
(dp285
sI277
(dp286
sI278
(dp287
sI279
(dp288
sI280
(dp289
sI281
(dp290
sI282
(dp291
sI283
(dp292
sI284
(dp293
sI285
(dp294
sI286
(dp295
sI287
(dp296
sI288
(dp297
sI289
(dp298
sI290
(dp299
sI291
(dp300
sI292
(dp301
sI293
(dp302
sI294
(dp303
sI295
(dp304
sI296
(dp305
sI297
(dp306
sI298
(dp307
sI299
(dp308
sI300
(dp309
sI301
(dp310
sI302
(dp311
sI303
(dp312
sI304
(dp313
sI305
(dp314
sI306
(dp315
sI307
(dp316
sI308
(dp317
sI309
(dp318
sI310
(dp319
sI311
(dp320
sI312
(dp321
sI313
(dp322
sI314
(dp323
sI315
(dp324
sI316
(dp325
sI317
(dp326
sI318
(dp327
sI319
(dp328
sI320
(dp329
sI321
(dp330
sI322
(dp331
sI323
(dp332
sI324
(dp333
sI325
(dp334
sI326
(dp335
sI327
(dp336
sI328
(dp337
sI329
(dp338
sI330
(dp339
sI331
(dp340
sI332
(dp341
sI333
(dp342
sI334
(dp343
sI335
(dp344
sI336
(dp345
sI337
(dp346
sI338
(dp347
sI339
(dp348
sI340
(dp349
sI341
(dp350
sI342
(dp351
sI343
(dp352
sI344
(dp353
sI345
(dp354
sI346
(dp355
sI347
(dp356
sI348
(dp357
sI349
(dp358
sI350
(dp359
sI351
(dp360
sI352
(dp361
sI353
(dp362
sI354
(dp363
sI355
(dp364
sI356
(dp365
sI357
(dp366
sI358
(dp367
sI359
(dp368
sI360
(dp369
sI361
(dp370
sI362
(dp371
sI363
(dp372
sI364
(dp373
sI365
(dp374
sI366
(dp375
sI367
(dp376
sI368
(dp377
sI369
(dp378
sI370
(dp379
sI371
(dp380
sI372
(dp381
sI373
(dp382
sI374
(dp383
sI375
(dp384
sI376
(dp385
sI377
(dp386
sI378
(dp387
sI379
(dp388
sI380
(dp389
sI381
(dp390
sI382
(dp391
sI383
(dp392
sI384
(dp393
sI385
(dp394
sI386
(dp395
sI387
(dp396
sI388
(dp397
sI389
(dp398
sI390
(dp399
sI391
(dp400
sI392
(dp401
sI393
(dp402
sI394
(dp403
sI395
(dp404
sI396
(dp405
sI397
(dp406
sI398
(dp407
sI399
(dp408
sI400
(dp409
sI401
(dp410
sI402
(dp411
sI403
(dp412
sI404
(dp413
sI405
(dp414
sI406
(dp415
sI407
(dp416
sI408
(dp417
sI409
(dp418
sI410
(dp419
sI411
(dp420
sI412
(dp421
sI413
(dp422
sI414
(dp423
sI415
(dp424
sI416
(dp425
sI417
(dp426
sI418
(dp427
sI419
(dp428
sI420
(dp429
sI421
(dp430
sI422
(dp431
sI423
(dp432
sI424
(dp433
sI425
(dp434
sI426
(dp435
sI427
(dp436
sI428
(dp437
sI429
(dp438
sI430
(dp439
sI431
(dp440
sI432
(dp441
sI433
(dp442
sI434
(dp443
sI435
(dp444
sI436
(dp445
sI437
(dp446
sI438
(dp447
sI439
(dp448
sI440
(dp449
sI441
(dp450
sI442
(dp451
sI443
(dp452
sI444
(dp453
sI445
(dp454
sI446
(dp455
sI447
(dp456
sI448
(dp457
sI449
(dp458
sI450
(dp459
sI451
(dp460
sI452
(dp461
sI453
(dp462
sI454
(dp463
sI455
(dp464
sI456
(dp465
sI457
(dp466
sI458
(dp467
sI459
(dp468
sI460
(dp469
sI461
(dp470
sI462
(dp471
sI463
(dp472
sI464
(dp473
sI465
(dp474
sI466
(dp475
sI467
(dp476
sI468
(dp477
sI469
(dp478
sI470
(dp479
sI471
(dp480
sI472
(dp481
sI473
(dp482
sI474
(dp483
sI475
(dp484
sI476
(dp485
sI477
(dp486
sI478
(dp487
sI479
(dp488
sI480
(dp489
sI481
(dp490
sI482
(dp491
sI483
(dp492
sI484
(dp493
sI485
(dp494
sI486
(dp495
sI487
(dp496
sI488
(dp497
sI489
(dp498
sI490
(dp499
sI491
(dp500
sI492
(dp501
sI493
(dp502
sI494
(dp503
sI495
(dp504
sI496
(dp505
sI497
(dp506
sI498
(dp507
sI499
(dp508
sI500
(dp509
S'train_reconstruct_error'
p510
g5
(g6
(I0
tS'b'
tRp511
(I1
(tg9
I00
S'\x14\xc5)C'
tbssI501
(dp512
sI502
(dp513
sI503
(dp514
sI504
(dp515
sI505
(dp516
sI506
(dp517
sI507
(dp518
sI508
(dp519
sI509
(dp520
sI510
(dp521
sI511
(dp522
sI512
(dp523
sI513
(dp524
sI514
(dp525
sI515
(dp526
sI516
(dp527
sI517
(dp528
sI518
(dp529
sI519
(dp530
sI520
(dp531
sI521
(dp532
sI522
(dp533
sI523
(dp534
sI524
(dp535
sI525
(dp536
sI526
(dp537
sI527
(dp538
sI528
(dp539
sI529
(dp540
sI530
(dp541
sI531
(dp542
sI532
(dp543
sI533
(dp544
sI534
(dp545
sI535
(dp546
sI536
(dp547
sI537
(dp548
sI538
(dp549
sI539
(dp550
sI540
(dp551
sI541
(dp552
sI542
(dp553
sI543
(dp554
sI544
(dp555
sI545
(dp556
sI546
(dp557
sI547
(dp558
sI548
(dp559
sI549
(dp560
sI550
(dp561
sI551
(dp562
sI552
(dp563
sI553
(dp564
sI554
(dp565
sI555
(dp566
sI556
(dp567
sI557
(dp568
sI558
(dp569
sI559
(dp570
sI560
(dp571
sI561
(dp572
sI562
(dp573
sI563
(dp574
sI564
(dp575
sI565
(dp576
sI566
(dp577
sI567
(dp578
sI568
(dp579
sI569
(dp580
sI570
(dp581
sI571
(dp582
sI572
(dp583
sI573
(dp584
sI574
(dp585
sI575
(dp586
sI576
(dp587
sI577
(dp588
sI578
(dp589
sI579
(dp590
sI580
(dp591
sI581
(dp592
sI582
(dp593
sI583
(dp594
sI584
(dp595
sI585
(dp596
sI586
(dp597
sI587
(dp598
sI588
(dp599
sI589
(dp600
sI590
(dp601
sI591
(dp602
sI592
(dp603
sI593
(dp604
sI594
(dp605
sI595
(dp606
sI596
(dp607
sI597
(dp608
sI598
(dp609
sI599
(dp610
sI600
(dp611
sI601
(dp612
sI602
(dp613
sI603
(dp614
sI604
(dp615
sI605
(dp616
sI606
(dp617
sI607
(dp618
sI608
(dp619
sI609
(dp620
sI610
(dp621
sI611
(dp622
sI612
(dp623
sI613
(dp624
sI614
(dp625
sI615
(dp626
sI616
(dp627
sI617
(dp628
sI618
(dp629
sI619
(dp630
sI620
(dp631
sI621
(dp632
sI622
(dp633
sI623
(dp634
sI624
(dp635
sI625
(dp636
sI626
(dp637
sI627
(dp638
sI628
(dp639
sI629
(dp640
sI630
(dp641
sI631
(dp642
sI632
(dp643
sI633
(dp644
sI634
(dp645
sI635
(dp646
sI636
(dp647
sI637
(dp648
sI638
(dp649
sI639
(dp650
sI640
(dp651
sI641
(dp652
sI642
(dp653
sI643
(dp654
sI644
(dp655
sI645
(dp656
sI646
(dp657
sI647
(dp658
sI648
(dp659
sI649
(dp660
sI650
(dp661
sI651
(dp662
sI652
(dp663
sI653
(dp664
sI654
(dp665
sI655
(dp666
sI656
(dp667
sI657
(dp668
sI658
(dp669
sI659
(dp670
sI660
(dp671
sI661
(dp672
sI662
(dp673
sI663
(dp674
sI664
(dp675
sI665
(dp676
sI666
(dp677
sI667
(dp678
sI668
(dp679
sI669
(dp680
sI670
(dp681
sI671
(dp682
sI672
(dp683
sI673
(dp684
sI674
(dp685
sI675
(dp686
sI676
(dp687
sI677
(dp688
sI678
(dp689
sI679
(dp690
sI680
(dp691
sI681
(dp692
sI682
(dp693
sI683
(dp694
sI684
(dp695
sI685
(dp696
sI686
(dp697
sI687
(dp698
sI688
(dp699
sI689
(dp700
sI690
(dp701
sI691
(dp702
sI692
(dp703
sI693
(dp704
sI694
(dp705
sI695
(dp706
sI696
(dp707
sI697
(dp708
sI698
(dp709
sI699
(dp710
sI700
(dp711
sI701
(dp712
sI702
(dp713
sI703
(dp714
sI704
(dp715
sI705
(dp716
sI706
(dp717
sI707
(dp718
sI708
(dp719
sI709
(dp720
sI710
(dp721
sI711
(dp722
sI712
(dp723
sI713
(dp724
sI714
(dp725
sI715
(dp726
sI716
(dp727
sI717
(dp728
sI718
(dp729
sI719
(dp730
sI720
(dp731
sI721
(dp732
sI722
(dp733
sI723
(dp734
sI724
(dp735
sI725
(dp736
sI726
(dp737
sI727
(dp738
sI728
(dp739
sI729
(dp740
sI730
(dp741
sI731
(dp742
sI732
(dp743
sI733
(dp744
sI734
(dp745
sI735
(dp746
sI736
(dp747
sI737
(dp748
sI738
(dp749
sI739
(dp750
sI740
(dp751
sI741
(dp752
sI742
(dp753
sI743
(dp754
sI744
(dp755
sI745
(dp756
sI746
(dp757
sI747
(dp758
sI748
(dp759
sI749
(dp760
sI750
(dp761
sI751
(dp762
sI752
(dp763
sI753
(dp764
sI754
(dp765
sI755
(dp766
sI756
(dp767
sI757
(dp768
sI758
(dp769
sI759
(dp770
sI760
(dp771
sI761
(dp772
sI762
(dp773
sI763
(dp774
sI764
(dp775
sI765
(dp776
sI766
(dp777
sI767
(dp778
sI768
(dp779
sI769
(dp780
sI770
(dp781
sI771
(dp782
sI772
(dp783
sI773
(dp784
sI774
(dp785
sI775
(dp786
sI776
(dp787
sI777
(dp788
sI778
(dp789
sI779
(dp790
sI780
(dp791
sI781
(dp792
sI782
(dp793
sI783
(dp794
sI784
(dp795
sI785
(dp796
sI786
(dp797
sI787
(dp798
sI788
(dp799
sI789
(dp800
sI790
(dp801
sI791
(dp802
sI792
(dp803
sI793
(dp804
sI794
(dp805
sI795
(dp806
sI796
(dp807
sI797
(dp808
sI798
(dp809
sI799
(dp810
sI800
(dp811
sI801
(dp812
sI802
(dp813
sI803
(dp814
sI804
(dp815
sI805
(dp816
sI806
(dp817
sI807
(dp818
sI808
(dp819
sI809
(dp820
sI810
(dp821
sI811
(dp822
sI812
(dp823
sI813
(dp824
sI814
(dp825
sI815
(dp826
sI816
(dp827
sI817
(dp828
sI818
(dp829
sI819
(dp830
sI820
(dp831
sI821
(dp832
sI822
(dp833
sI823
(dp834
sI824
(dp835
sI825
(dp836
sI826
(dp837
sI827
(dp838
sI828
(dp839
sI829
(dp840
sI830
(dp841
sI831
(dp842
sI832
(dp843
sI833
(dp844
sI834
(dp845
sI835
(dp846
sI836
(dp847
sI837
(dp848
sI838
(dp849
sI839
(dp850
sI840
(dp851
sI841
(dp852
sI842
(dp853
sI843
(dp854
sI844
(dp855
sI845
(dp856
sI846
(dp857
sI847
(dp858
sI848
(dp859
sI849
(dp860
sI850
(dp861
sI851
(dp862
sI852
(dp863
sI853
(dp864
sI854
(dp865
sI855
(dp866
sI856
(dp867
sI857
(dp868
sI858
(dp869
sI859
(dp870
sI860
(dp871
sI861
(dp872
sI862
(dp873
sI863
(dp874
sI864
(dp875
sI865
(dp876
sI866
(dp877
sI867
(dp878
sI868
(dp879
sI869
(dp880
sI870
(dp881
sI871
(dp882
sI872
(dp883
sI873
(dp884
sI874
(dp885
sI875
(dp886
sI876
(dp887
sI877
(dp888
sI878
(dp889
sI879
(dp890
sI880
(dp891
sI881
(dp892
sI882
(dp893
sI883
(dp894
sI884
(dp895
sI885
(dp896
sI886
(dp897
sI887
(dp898
sI888
(dp899
sI889
(dp900
sI890
(dp901
sI891
(dp902
sI892
(dp903
sI893
(dp904
sI894
(dp905
sI895
(dp906
sI896
(dp907
sI897
(dp908
sI898
(dp909
sI899
(dp910
sI900
(dp911
sI901
(dp912
sI902
(dp913
sI903
(dp914
sI904
(dp915
sI905
(dp916
sI906
(dp917
sI907
(dp918
sI908
(dp919
sI909
(dp920
sI910
(dp921
sI911
(dp922
sI912
(dp923
sI913
(dp924
sI914
(dp925
sI915
(dp926
sI916
(dp927
sI917
(dp928
sI918
(dp929
sI919
(dp930
sI920
(dp931
sI921
(dp932
sI922
(dp933
sI923
(dp934
sI924
(dp935
sI925
(dp936
sI926
(dp937
sI927
(dp938
sI928
(dp939
sI929
(dp940
sI930
(dp941
sI931
(dp942
sI932
(dp943
sI933
(dp944
sI934
(dp945
sI935
(dp946
sI936
(dp947
sI937
(dp948
sI938
(dp949
sI939
(dp950
sI940
(dp951
sI941
(dp952
sI942
(dp953
sI943
(dp954
sI944
(dp955
sI945
(dp956
sI946
(dp957
sI947
(dp958
sI948
(dp959
sI949
(dp960
sI950
(dp961
sI951
(dp962
sI952
(dp963
sI953
(dp964
sI954
(dp965
sI955
(dp966
sI956
(dp967
sI957
(dp968
sI958
(dp969
sI959
(dp970
sI960
(dp971
sI961
(dp972
sI962
(dp973
sI963
(dp974
sI964
(dp975
sI965
(dp976
sI966
(dp977
sI967
(dp978
sI968
(dp979
sI969
(dp980
sI970
(dp981
sI971
(dp982
sI972
(dp983
sI973
(dp984
sI974
(dp985
sI975
(dp986
sI976
(dp987
sI977
(dp988
sI978
(dp989
sI979
(dp990
sI980
(dp991
sI981
(dp992
sI982
(dp993
sI983
(dp994
sI984
(dp995
sI985
(dp996
sI986
(dp997
sI987
(dp998
sI988
(dp999
sI989
(dp1000
sI990
(dp1001
sI991
(dp1002
sI992
(dp1003
sI993
(dp1004
sI994
(dp1005
sI995
(dp1006
sI996
(dp1007
sI997
(dp1008
sI998
(dp1009
sI999
(dp1010
sI1000
(dp1011
S'train_reconstruct_error'
p1012
g5
(g6
(I0
tS'b'
tRp1013
(I1
(tg9
I00
S'B\xa5\xfbB'
tbssI1001
(dp1014
sI1002
(dp1015
sI1003
(dp1016
sI1004
(dp1017
sI1005
(dp1018
sI1006
(dp1019
sI1007
(dp1020
sI1008
(dp1021
sI1009
(dp1022
sI1010
(dp1023
sI1011
(dp1024
sI1012
(dp1025
sI1013
(dp1026
sI1014
(dp1027
sI1015
(dp1028
sI1016
(dp1029
sI1017
(dp1030
sI1018
(dp1031
sI1019
(dp1032
sI1020
(dp1033
sI1021
(dp1034
sI1022
(dp1035
sI1023
(dp1036
sI1024
(dp1037
sI1025
(dp1038
sI1026
(dp1039
sI1027
(dp1040
sI1028
(dp1041
sI1029
(dp1042
sI1030
(dp1043
sI1031
(dp1044
sI1032
(dp1045
sI1033
(dp1046
sI1034
(dp1047
sI1035
(dp1048
sI1036
(dp1049
sI1037
(dp1050
sI1038
(dp1051
sI1039
(dp1052
sI1040
(dp1053
sI1041
(dp1054
sI1042
(dp1055
sI1043
(dp1056
sI1044
(dp1057
sI1045
(dp1058
sI1046
(dp1059
sI1047
(dp1060
sI1048
(dp1061
sI1049
(dp1062
sI1050
(dp1063
sI1051
(dp1064
sI1052
(dp1065
sI1053
(dp1066
sI1054
(dp1067
sI1055
(dp1068
sI1056
(dp1069
sI1057
(dp1070
sI1058
(dp1071
sI1059
(dp1072
sI1060
(dp1073
sI1061
(dp1074
sI1062
(dp1075
sI1063
(dp1076
sI1064
(dp1077
sI1065
(dp1078
sI1066
(dp1079
sI1067
(dp1080
sI1068
(dp1081
sI1069
(dp1082
sI1070
(dp1083
sI1071
(dp1084
sI1072
(dp1085
sI1073
(dp1086
sI1074
(dp1087
sI1075
(dp1088
sI1076
(dp1089
sI1077
(dp1090
sI1078
(dp1091
sI1079
(dp1092
sI1080
(dp1093
sI1081
(dp1094
sI1082
(dp1095
sI1083
(dp1096
sI1084
(dp1097
sI1085
(dp1098
sI1086
(dp1099
sI1087
(dp1100
sI1088
(dp1101
sI1089
(dp1102
sI1090
(dp1103
sI1091
(dp1104
sI1092
(dp1105
sI1093
(dp1106
sI1094
(dp1107
sI1095
(dp1108
sI1096
(dp1109
sI1097
(dp1110
sI1098
(dp1111
sI1099
(dp1112
sI1100
(dp1113
sI1101
(dp1114
sI1102
(dp1115
sI1103
(dp1116
sI1104
(dp1117
sI1105
(dp1118
sI1106
(dp1119
sI1107
(dp1120
sI1108
(dp1121
sI1109
(dp1122
sI1110
(dp1123
sI1111
(dp1124
sI1112
(dp1125
sI1113
(dp1126
sI1114
(dp1127
sI1115
(dp1128
sI1116
(dp1129
sI1117
(dp1130
sI1118
(dp1131
sI1119
(dp1132
sI1120
(dp1133
sI1121
(dp1134
sI1122
(dp1135
sI1123
(dp1136
sI1124
(dp1137
sI1125
(dp1138
sI1126
(dp1139
sI1127
(dp1140
sI1128
(dp1141
sI1129
(dp1142
sI1130
(dp1143
sI1131
(dp1144
sI1132
(dp1145
sI1133
(dp1146
sI1134
(dp1147
sI1135
(dp1148
sI1136
(dp1149
sI1137
(dp1150
sI1138
(dp1151
sI1139
(dp1152
sI1140
(dp1153
sI1141
(dp1154
sI1142
(dp1155
sI1143
(dp1156
sI1144
(dp1157
sI1145
(dp1158
sI1146
(dp1159
sI1147
(dp1160
sI1148
(dp1161
sI1149
(dp1162
sI1150
(dp1163
sI1151
(dp1164
sI1152
(dp1165
sI1153
(dp1166
sI1154
(dp1167
sI1155
(dp1168
sI1156
(dp1169
sI1157
(dp1170
sI1158
(dp1171
sI1159
(dp1172
sI1160
(dp1173
sI1161
(dp1174
sI1162
(dp1175
sI1163
(dp1176
sI1164
(dp1177
sI1165
(dp1178
sI1166
(dp1179
sI1167
(dp1180
sI1168
(dp1181
sI1169
(dp1182
sI1170
(dp1183
sI1171
(dp1184
sI1172
(dp1185
sI1173
(dp1186
sI1174
(dp1187
sI1175
(dp1188
sI1176
(dp1189
sI1177
(dp1190
sI1178
(dp1191
sI1179
(dp1192
sI1180
(dp1193
sI1181
(dp1194
sI1182
(dp1195
sI1183
(dp1196
sI1184
(dp1197
sI1185
(dp1198
sI1186
(dp1199
sI1187
(dp1200
sI1188
(dp1201
sI1189
(dp1202
sI1190
(dp1203
sI1191
(dp1204
sI1192
(dp1205
sI1193
(dp1206
sI1194
(dp1207
sI1195
(dp1208
sI1196
(dp1209
sI1197
(dp1210
sI1198
(dp1211
sI1199
(dp1212
sI1200
(dp1213
sI1201
(dp1214
sI1202
(dp1215
sI1203
(dp1216
sI1204
(dp1217
sI1205
(dp1218
sI1206
(dp1219
sI1207
(dp1220
sI1208
(dp1221
sI1209
(dp1222
sI1210
(dp1223
sI1211
(dp1224
sI1212
(dp1225
sI1213
(dp1226
sI1214
(dp1227
sI1215
(dp1228
sI1216
(dp1229
sI1217
(dp1230
sI1218
(dp1231
sI1219
(dp1232
sI1220
(dp1233
sI1221
(dp1234
sI1222
(dp1235
sI1223
(dp1236
sI1224
(dp1237
sI1225
(dp1238
sI1226
(dp1239
sI1227
(dp1240
sI1228
(dp1241
sI1229
(dp1242
sI1230
(dp1243
sI1231
(dp1244
sI1232
(dp1245
sI1233
(dp1246
sI1234
(dp1247
sI1235
(dp1248
sI1236
(dp1249
sI1237
(dp1250
sI1238
(dp1251
sI1239
(dp1252
sI1240
(dp1253
sI1241
(dp1254
sI1242
(dp1255
sI1243
(dp1256
sI1244
(dp1257
sI1245
(dp1258
sI1246
(dp1259
sI1247
(dp1260
sI1248
(dp1261
sI1249
(dp1262
sI1250
(dp1263
sI1251
(dp1264
sI1252
(dp1265
sI1253
(dp1266
sI1254
(dp1267
sI1255
(dp1268
sI1256
(dp1269
sI1257
(dp1270
sI1258
(dp1271
sI1259
(dp1272
sI1260
(dp1273
sI1261
(dp1274
sI1262
(dp1275
sI1263
(dp1276
sI1264
(dp1277
sI1265
(dp1278
sI1266
(dp1279
sI1267
(dp1280
sI1268
(dp1281
sI1269
(dp1282
sI1270
(dp1283
sI1271
(dp1284
sI1272
(dp1285
sI1273
(dp1286
sI1274
(dp1287
sI1275
(dp1288
sI1276
(dp1289
sI1277
(dp1290
sI1278
(dp1291
sI1279
(dp1292
sI1280
(dp1293
sI1281
(dp1294
sI1282
(dp1295
sI1283
(dp1296
sI1284
(dp1297
sI1285
(dp1298
sI1286
(dp1299
sI1287
(dp1300
sI1288
(dp1301
sI1289
(dp1302
sI1290
(dp1303
sI1291
(dp1304
sI1292
(dp1305
sI1293
(dp1306
sI1294
(dp1307
sI1295
(dp1308
sI1296
(dp1309
sI1297
(dp1310
sI1298
(dp1311
sI1299
(dp1312
sI1300
(dp1313
sI1301
(dp1314
sI1302
(dp1315
sI1303
(dp1316
sI1304
(dp1317
sI1305
(dp1318
sI1306
(dp1319
sI1307
(dp1320
sI1308
(dp1321
sI1309
(dp1322
sI1310
(dp1323
sI1311
(dp1324
sI1312
(dp1325
sI1313
(dp1326
sI1314
(dp1327
sI1315
(dp1328
sI1316
(dp1329
sI1317
(dp1330
sI1318
(dp1331
sI1319
(dp1332
sI1320
(dp1333
sI1321
(dp1334
sI1322
(dp1335
sI1323
(dp1336
sI1324
(dp1337
sI1325
(dp1338
sI1326
(dp1339
sI1327
(dp1340
sI1328
(dp1341
sI1329
(dp1342
sI1330
(dp1343
sI1331
(dp1344
sI1332
(dp1345
sI1333
(dp1346
sI1334
(dp1347
sI1335
(dp1348
sI1336
(dp1349
sI1337
(dp1350
sI1338
(dp1351
sI1339
(dp1352
sI1340
(dp1353
sI1341
(dp1354
sI1342
(dp1355
sI1343
(dp1356
sI1344
(dp1357
sI1345
(dp1358
sI1346
(dp1359
sI1347
(dp1360
sI1348
(dp1361
sI1349
(dp1362
sI1350
(dp1363
sI1351
(dp1364
sI1352
(dp1365
sI1353
(dp1366
sI1354
(dp1367
sI1355
(dp1368
sI1356
(dp1369
sI1357
(dp1370
sI1358
(dp1371
sI1359
(dp1372
sI1360
(dp1373
sI1361
(dp1374
sI1362
(dp1375
sI1363
(dp1376
sI1364
(dp1377
sI1365
(dp1378
sI1366
(dp1379
sI1367
(dp1380
sI1368
(dp1381
sI1369
(dp1382
sI1370
(dp1383
sI1371
(dp1384
sI1372
(dp1385
sI1373
(dp1386
sI1374
(dp1387
sI1375
(dp1388
sI1376
(dp1389
sI1377
(dp1390
sI1378
(dp1391
sI1379
(dp1392
sI1380
(dp1393
sI1381
(dp1394
sI1382
(dp1395
sI1383
(dp1396
sI1384
(dp1397
sI1385
(dp1398
sI1386
(dp1399
sI1387
(dp1400
sI1388
(dp1401
sI1389
(dp1402
sI1390
(dp1403
sI1391
(dp1404
sI1392
(dp1405
sI1393
(dp1406
sI1394
(dp1407
sI1395
(dp1408
sI1396
(dp1409
sI1397
(dp1410
sI1398
(dp1411
sI1399
(dp1412
sI1400
(dp1413
sI1401
(dp1414
sI1402
(dp1415
sI1403
(dp1416
sI1404
(dp1417
sI1405
(dp1418
sI1406
(dp1419
sI1407
(dp1420
sI1408
(dp1421
sI1409
(dp1422
sI1410
(dp1423
sI1411
(dp1424
sI1412
(dp1425
sI1413
(dp1426
sI1414
(dp1427
sI1415
(dp1428
sI1416
(dp1429
sI1417
(dp1430
sI1418
(dp1431
sI1419
(dp1432
sI1420
(dp1433
sI1421
(dp1434
sI1422
(dp1435
sI1423
(dp1436
sI1424
(dp1437
sI1425
(dp1438
sI1426
(dp1439
sI1427
(dp1440
sI1428
(dp1441
sI1429
(dp1442
sI1430
(dp1443
sI1431
(dp1444
sI1432
(dp1445
sI1433
(dp1446
sI1434
(dp1447
sI1435
(dp1448
sI1436
(dp1449
sI1437
(dp1450
sI1438
(dp1451
sI1439
(dp1452
sI1440
(dp1453
sI1441
(dp1454
sI1442
(dp1455
sI1443
(dp1456
sI1444
(dp1457
sI1445
(dp1458
sI1446
(dp1459
sI1447
(dp1460
sI1448
(dp1461
sI1449
(dp1462
sI1450
(dp1463
sI1451
(dp1464
sI1452
(dp1465
sI1453
(dp1466
sI1454
(dp1467
sI1455
(dp1468
sI1456
(dp1469
sI1457
(dp1470
sI1458
(dp1471
sI1459
(dp1472
sI1460
(dp1473
sI1461
(dp1474
sI1462
(dp1475
sI1463
(dp1476
sI1464
(dp1477
sI1465
(dp1478
sI1466
(dp1479
sI1467
(dp1480
sI1468
(dp1481
sI1469
(dp1482
sI1470
(dp1483
sI1471
(dp1484
sI1472
(dp1485
sI1473
(dp1486
sI1474
(dp1487
sI1475
(dp1488
sI1476
(dp1489
sI1477
(dp1490
sI1478
(dp1491
sI1479
(dp1492
sI1480
(dp1493
sI1481
(dp1494
sI1482
(dp1495
sI1483
(dp1496
sI1484
(dp1497
sI1485
(dp1498
sI1486
(dp1499
sI1487
(dp1500
sI1488
(dp1501
sI1489
(dp1502
sI1490
(dp1503
sI1491
(dp1504
sI1492
(dp1505
sI1493
(dp1506
sI1494
(dp1507
sI1495
(dp1508
sI1496
(dp1509
sI1497
(dp1510
sI1498
(dp1511
sI1499
(dp1512
sI1500
(dp1513
S'train_reconstruct_error'
p1514
g5
(g6
(I0
tS'b'
tRp1515
(I1
(tg9
I00
S'\xbb$\xd3B'
tbssI1501
(dp1516
sI1502
(dp1517
sI1503
(dp1518
sI1504
(dp1519
sI1505
(dp1520
sI1506
(dp1521
sI1507
(dp1522
sI1508
(dp1523
sI1509
(dp1524
sI1510
(dp1525
sI1511
(dp1526
sI1512
(dp1527
sI1513
(dp1528
sI1514
(dp1529
sI1515
(dp1530
sI1516
(dp1531
sI1517
(dp1532
sI1518
(dp1533
sI1519
(dp1534
sI1520
(dp1535
sI1521
(dp1536
sI1522
(dp1537
sI1523
(dp1538
sI1524
(dp1539
sI1525
(dp1540
sI1526
(dp1541
sI1527
(dp1542
sI1528
(dp1543
sI1529
(dp1544
sI1530
(dp1545
sI1531
(dp1546
sI1532
(dp1547
sI1533
(dp1548
sI1534
(dp1549
sI1535
(dp1550
sI1536
(dp1551
sI1537
(dp1552
sI1538
(dp1553
sI1539
(dp1554
sI1540
(dp1555
sI1541
(dp1556
sI1542
(dp1557
sI1543
(dp1558
sI1544
(dp1559
sI1545
(dp1560
sI1546
(dp1561
sI1547
(dp1562
sI1548
(dp1563
sI1549
(dp1564
sI1550
(dp1565
sI1551
(dp1566
sI1552
(dp1567
sI1553
(dp1568
sI1554
(dp1569
sI1555
(dp1570
sI1556
(dp1571
sI1557
(dp1572
sI1558
(dp1573
sI1559
(dp1574
sI1560
(dp1575
sI1561
(dp1576
sI1562
(dp1577
sI1563
(dp1578
sI1564
(dp1579
sI1565
(dp1580
sI1566
(dp1581
sI1567
(dp1582
sI1568
(dp1583
sI1569
(dp1584
sI1570
(dp1585
sI1571
(dp1586
sI1572
(dp1587
sI1573
(dp1588
sI1574
(dp1589
sI1575
(dp1590
sI1576
(dp1591
sI1577
(dp1592
sI1578
(dp1593
sI1579
(dp1594
sI1580
(dp1595
sI1581
(dp1596
sI1582
(dp1597
sI1583
(dp1598
sI1584
(dp1599
sI1585
(dp1600
sI1586
(dp1601
sI1587
(dp1602
sI1588
(dp1603
sI1589
(dp1604
sI1590
(dp1605
sI1591
(dp1606
sI1592
(dp1607
sI1593
(dp1608
sI1594
(dp1609
sI1595
(dp1610
sI1596
(dp1611
sI1597
(dp1612
sI1598
(dp1613
sI1599
(dp1614
sI1600
(dp1615
sI1601
(dp1616
sI1602
(dp1617
sI1603
(dp1618
sI1604
(dp1619
sI1605
(dp1620
sI1606
(dp1621
sI1607
(dp1622
sI1608
(dp1623
sI1609
(dp1624
sI1610
(dp1625
sI1611
(dp1626
sI1612
(dp1627
sI1613
(dp1628
sI1614
(dp1629
sI1615
(dp1630
sI1616
(dp1631
sI1617
(dp1632
sI1618
(dp1633
sI1619
(dp1634
sI1620
(dp1635
sI1621
(dp1636
sI1622
(dp1637
sI1623
(dp1638
sI1624
(dp1639
sI1625
(dp1640
sI1626
(dp1641
sI1627
(dp1642
sI1628
(dp1643
sI1629
(dp1644
sI1630
(dp1645
sI1631
(dp1646
sI1632
(dp1647
sI1633
(dp1648
sI1634
(dp1649
sI1635
(dp1650
sI1636
(dp1651
sI1637
(dp1652
sI1638
(dp1653
sI1639
(dp1654
sI1640
(dp1655
sI1641
(dp1656
sI1642
(dp1657
sI1643
(dp1658
sI1644
(dp1659
sI1645
(dp1660
sI1646
(dp1661
sI1647
(dp1662
sI1648
(dp1663
sI1649
(dp1664
sI1650
(dp1665
sI1651
(dp1666
sI1652
(dp1667
sI1653
(dp1668
sI1654
(dp1669
sI1655
(dp1670
sI1656
(dp1671
sI1657
(dp1672
sI1658
(dp1673
sI1659
(dp1674
sI1660
(dp1675
sI1661
(dp1676
sI1662
(dp1677
sI1663
(dp1678
sI1664
(dp1679
sI1665
(dp1680
sI1666
(dp1681
sI1667
(dp1682
sI1668
(dp1683
sI1669
(dp1684
sI1670
(dp1685
sI1671
(dp1686
sI1672
(dp1687
sI1673
(dp1688
sI1674
(dp1689
sI1675
(dp1690
sI1676
(dp1691
sI1677
(dp1692
sI1678
(dp1693
sI1679
(dp1694
sI1680
(dp1695
sI1681
(dp1696
sI1682
(dp1697
sI1683
(dp1698
sI1684
(dp1699
sI1685
(dp1700
sI1686
(dp1701
sI1687
(dp1702
sI1688
(dp1703
sI1689
(dp1704
sI1690
(dp1705
sI1691
(dp1706
sI1692
(dp1707
sI1693
(dp1708
sI1694
(dp1709
sI1695
(dp1710
sI1696
(dp1711
sI1697
(dp1712
sI1698
(dp1713
sI1699
(dp1714
sI1700
(dp1715
sI1701
(dp1716
sI1702
(dp1717
sI1703
(dp1718
sI1704
(dp1719
sI1705
(dp1720
sI1706
(dp1721
sI1707
(dp1722
sI1708
(dp1723
sI1709
(dp1724
sI1710
(dp1725
sI1711
(dp1726
sI1712
(dp1727
sI1713
(dp1728
sI1714
(dp1729
sI1715
(dp1730
sI1716
(dp1731
sI1717
(dp1732
sI1718
(dp1733
sI1719
(dp1734
sI1720
(dp1735
sI1721
(dp1736
sI1722
(dp1737
sI1723
(dp1738
sI1724
(dp1739
sI1725
(dp1740
sI1726
(dp1741
sI1727
(dp1742
sI1728
(dp1743
sI1729
(dp1744
sI1730
(dp1745
sI1731
(dp1746
sI1732
(dp1747
sI1733
(dp1748
sI1734
(dp1749
sI1735
(dp1750
sI1736
(dp1751
sI1737
(dp1752
sI1738
(dp1753
sI1739
(dp1754
sI1740
(dp1755
sI1741
(dp1756
sI1742
(dp1757
sI1743
(dp1758
sI1744
(dp1759
sI1745
(dp1760
sI1746
(dp1761
sI1747
(dp1762
sI1748
(dp1763
sI1749
(dp1764
sI1750
(dp1765
sI1751
(dp1766
sI1752
(dp1767
sI1753
(dp1768
sI1754
(dp1769
sI1755
(dp1770
sI1756
(dp1771
sI1757
(dp1772
sI1758
(dp1773
sI1759
(dp1774
sI1760
(dp1775
sI1761
(dp1776
sI1762
(dp1777
sI1763
(dp1778
sI1764
(dp1779
sI1765
(dp1780
sI1766
(dp1781
sI1767
(dp1782
sI1768
(dp1783
sI1769
(dp1784
sI1770
(dp1785
sI1771
(dp1786
sI1772
(dp1787
sI1773
(dp1788
sI1774
(dp1789
sI1775
(dp1790
sI1776
(dp1791
sI1777
(dp1792
sI1778
(dp1793
sI1779
(dp1794
sI1780
(dp1795
sI1781
(dp1796
sI1782
(dp1797
sI1783
(dp1798
sI1784
(dp1799
sI1785
(dp1800
sI1786
(dp1801
sI1787
(dp1802
sI1788
(dp1803
sI1789
(dp1804
sI1790
(dp1805
sI1791
(dp1806
sI1792
(dp1807
sI1793
(dp1808
sI1794
(dp1809
sI1795
(dp1810
sI1796
(dp1811
sI1797
(dp1812
sI1798
(dp1813
sI1799
(dp1814
sI1800
(dp1815
sI1801
(dp1816
sI1802
(dp1817
sI1803
(dp1818
sI1804
(dp1819
sI1805
(dp1820
sI1806
(dp1821
sI1807
(dp1822
sI1808
(dp1823
sI1809
(dp1824
sI1810
(dp1825
sI1811
(dp1826
sI1812
(dp1827
sI1813
(dp1828
sI1814
(dp1829
sI1815
(dp1830
sI1816
(dp1831
sI1817
(dp1832
sI1818
(dp1833
sI1819
(dp1834
sI1820
(dp1835
sI1821
(dp1836
sI1822
(dp1837
sI1823
(dp1838
sI1824
(dp1839
sI1825
(dp1840
sI1826
(dp1841
sI1827
(dp1842
sI1828
(dp1843
sI1829
(dp1844
sI1830
(dp1845
sI1831
(dp1846
sI1832
(dp1847
sI1833
(dp1848
sI1834
(dp1849
sI1835
(dp1850
sI1836
(dp1851
sI1837
(dp1852
sI1838
(dp1853
sI1839
(dp1854
sI1840
(dp1855
sI1841
(dp1856
sI1842
(dp1857
sI1843
(dp1858
sI1844
(dp1859
sI1845
(dp1860
sI1846
(dp1861
sI1847
(dp1862
sI1848
(dp1863
sI1849
(dp1864
sI1850
(dp1865
sI1851
(dp1866
sI1852
(dp1867
sI1853
(dp1868
sI1854
(dp1869
sI1855
(dp1870
sI1856
(dp1871
sI1857
(dp1872
sI1858
(dp1873
sI1859
(dp1874
sI1860
(dp1875
sI1861
(dp1876
sI1862
(dp1877
sI1863
(dp1878
sI1864
(dp1879
sI1865
(dp1880
sI1866
(dp1881
sI1867
(dp1882
sI1868
(dp1883
sI1869
(dp1884
sI1870
(dp1885
sI1871
(dp1886
sI1872
(dp1887
sI1873
(dp1888
sI1874
(dp1889
sI1875
(dp1890
sI1876
(dp1891
sI1877
(dp1892
sI1878
(dp1893
sI1879
(dp1894
sI1880
(dp1895
sI1881
(dp1896
sI1882
(dp1897
sI1883
(dp1898
sI1884
(dp1899
sI1885
(dp1900
sI1886
(dp1901
sI1887
(dp1902
sI1888
(dp1903
sI1889
(dp1904
sI1890
(dp1905
sI1891
(dp1906
sI1892
(dp1907
sI1893
(dp1908
sI1894
(dp1909
sI1895
(dp1910
sI1896
(dp1911
sI1897
(dp1912
sI1898
(dp1913
sI1899
(dp1914
sI1900
(dp1915
sI1901
(dp1916
sI1902
(dp1917
sI1903
(dp1918
sI1904
(dp1919
sI1905
(dp1920
sI1906
(dp1921
sI1907
(dp1922
sI1908
(dp1923
sI1909
(dp1924
sI1910
(dp1925
sI1911
(dp1926
sI1912
(dp1927
sI1913
(dp1928
sI1914
(dp1929
sI1915
(dp1930
sI1916
(dp1931
sI1917
(dp1932
sI1918
(dp1933
sI1919
(dp1934
sI1920
(dp1935
sI1921
(dp1936
sI1922
(dp1937
sI1923
(dp1938
sI1924
(dp1939
sI1925
(dp1940
sI1926
(dp1941
sI1927
(dp1942
sI1928
(dp1943
sI1929
(dp1944
sI1930
(dp1945
sI1931
(dp1946
sI1932
(dp1947
sI1933
(dp1948
sI1934
(dp1949
sI1935
(dp1950
sI1936
(dp1951
sI1937
(dp1952
sI1938
(dp1953
sI1939
(dp1954
sI1940
(dp1955
sI1941
(dp1956
sI1942
(dp1957
sI1943
(dp1958
sI1944
(dp1959
sI1945
(dp1960
sI1946
(dp1961
sI1947
(dp1962
sI1948
(dp1963
sI1949
(dp1964
sI1950
(dp1965
sI1951
(dp1966
sI1952
(dp1967
sI1953
(dp1968
sI1954
(dp1969
sI1955
(dp1970
sI1956
(dp1971
sI1957
(dp1972
sI1958
(dp1973
sI1959
(dp1974
sI1960
(dp1975
sI1961
(dp1976
sI1962
(dp1977
sI1963
(dp1978
sI1964
(dp1979
sI1965
(dp1980
sI1966
(dp1981
sI1967
(dp1982
sI1968
(dp1983
sI1969
(dp1984
sI1970
(dp1985
sI1971
(dp1986
sI1972
(dp1987
sI1973
(dp1988
sI1974
(dp1989
sI1975
(dp1990
sI1976
(dp1991
sI1977
(dp1992
sI1978
(dp1993
sI1979
(dp1994
sI1980
(dp1995
sI1981
(dp1996
sI1982
(dp1997
sI1983
(dp1998
sI1984
(dp1999
sI1985
(dp2000
sI1986
(dp2001
sI1987
(dp2002
sI1988
(dp2003
sI1989
(dp2004
sI1990
(dp2005
sI1991
(dp2006
sI1992
(dp2007
sI1993
(dp2008
sI1994
(dp2009
sI1995
(dp2010
sI1996
(dp2011
sI1997
(dp2012
sI1998
(dp2013
sI1999
(dp2014
sI2000
(dp2015
S'train_reconstruct_error'
p2016
g5
(g6
(I0
tS'b'
tRp2017
(I1
(tg9
I00
S'\xf3\xb4\xcfB'
tbssI2001
(dp2018
sI2002
(dp2019
sI2003
(dp2020
sI2004
(dp2021
sI2005
(dp2022
sI2006
(dp2023
sI2007
(dp2024
sI2008
(dp2025
sI2009
(dp2026
sI2010
(dp2027
sI2011
(dp2028
sI2012
(dp2029
sI2013
(dp2030
sI2014
(dp2031
sI2015
(dp2032
sI2016
(dp2033
sI2017
(dp2034
sI2018
(dp2035
sI2019
(dp2036
sI2020
(dp2037
sI2021
(dp2038
sI2022
(dp2039
sI2023
(dp2040
sI2024
(dp2041
sI2025
(dp2042
sI2026
(dp2043
sI2027
(dp2044
sI2028
(dp2045
sI2029
(dp2046
sI2030
(dp2047
sI2031
(dp2048
sI2032
(dp2049
sI2033
(dp2050
sI2034
(dp2051
sI2035
(dp2052
sI2036
(dp2053
sI2037
(dp2054
sI2038
(dp2055
sI2039
(dp2056
sI2040
(dp2057
sI2041
(dp2058
sI2042
(dp2059
sI2043
(dp2060
sI2044
(dp2061
sI2045
(dp2062
sI2046
(dp2063
sI2047
(dp2064
sI2048
(dp2065
sI2049
(dp2066
sI2050
(dp2067
sI2051
(dp2068
sI2052
(dp2069
sI2053
(dp2070
sI2054
(dp2071
sI2055
(dp2072
sI2056
(dp2073
sI2057
(dp2074
sI2058
(dp2075
sI2059
(dp2076
sI2060
(dp2077
sI2061
(dp2078
sI2062
(dp2079
sI2063
(dp2080
sI2064
(dp2081
sI2065
(dp2082
sI2066
(dp2083
sI2067
(dp2084
sI2068
(dp2085
sI2069
(dp2086
sI2070
(dp2087
sI2071
(dp2088
sI2072
(dp2089
sI2073
(dp2090
sI2074
(dp2091
sI2075
(dp2092
sI2076
(dp2093
sI2077
(dp2094
sI2078
(dp2095
sI2079
(dp2096
sI2080
(dp2097
sI2081
(dp2098
sI2082
(dp2099
sI2083
(dp2100
sI2084
(dp2101
sI2085
(dp2102
sI2086
(dp2103
sI2087
(dp2104
sI2088
(dp2105
sI2089
(dp2106
sI2090
(dp2107
sI2091
(dp2108
sI2092
(dp2109
sI2093
(dp2110
sI2094
(dp2111
sI2095
(dp2112
sI2096
(dp2113
sI2097
(dp2114
sI2098
(dp2115
sI2099
(dp2116
sI2100
(dp2117
sI2101
(dp2118
sI2102
(dp2119
sI2103
(dp2120
sI2104
(dp2121
sI2105
(dp2122
sI2106
(dp2123
sI2107
(dp2124
sI2108
(dp2125
sI2109
(dp2126
sI2110
(dp2127
sI2111
(dp2128
sI2112
(dp2129
sI2113
(dp2130
sI2114
(dp2131
sI2115
(dp2132
sI2116
(dp2133
sI2117
(dp2134
sI2118
(dp2135
sI2119
(dp2136
sI2120
(dp2137
sI2121
(dp2138
sI2122
(dp2139
sI2123
(dp2140
sI2124
(dp2141
sI2125
(dp2142
sI2126
(dp2143
sI2127
(dp2144
sI2128
(dp2145
sI2129
(dp2146
sI2130
(dp2147
sI2131
(dp2148
sI2132
(dp2149
sI2133
(dp2150
sI2134
(dp2151
sI2135
(dp2152
sI2136
(dp2153
sI2137
(dp2154
sI2138
(dp2155
sI2139
(dp2156
sI2140
(dp2157
sI2141
(dp2158
sI2142
(dp2159
sI2143
(dp2160
sI2144
(dp2161
sI2145
(dp2162
sI2146
(dp2163
sI2147
(dp2164
sI2148
(dp2165
sI2149
(dp2166
sI2150
(dp2167
sI2151
(dp2168
sI2152
(dp2169
sI2153
(dp2170
sI2154
(dp2171
sI2155
(dp2172
sI2156
(dp2173
sI2157
(dp2174
sI2158
(dp2175
sI2159
(dp2176
sI2160
(dp2177
sI2161
(dp2178
sI2162
(dp2179
sI2163
(dp2180
sI2164
(dp2181
sI2165
(dp2182
sI2166
(dp2183
sI2167
(dp2184
sI2168
(dp2185
sI2169
(dp2186
sI2170
(dp2187
sI2171
(dp2188
sI2172
(dp2189
sI2173
(dp2190
sI2174
(dp2191
sI2175
(dp2192
sI2176
(dp2193
sI2177
(dp2194
sI2178
(dp2195
sI2179
(dp2196
sI2180
(dp2197
sI2181
(dp2198
sI2182
(dp2199
sI2183
(dp2200
sI2184
(dp2201
sI2185
(dp2202
sI2186
(dp2203
sI2187
(dp2204
sI2188
(dp2205
sI2189
(dp2206
sI2190
(dp2207
sI2191
(dp2208
sI2192
(dp2209
sI2193
(dp2210
sI2194
(dp2211
sI2195
(dp2212
sI2196
(dp2213
sI2197
(dp2214
sI2198
(dp2215
sI2199
(dp2216
sI2200
(dp2217
sI2201
(dp2218
sI2202
(dp2219
sI2203
(dp2220
sI2204
(dp2221
sI2205
(dp2222
sI2206
(dp2223
sI2207
(dp2224
sI2208
(dp2225
sI2209
(dp2226
sI2210
(dp2227
sI2211
(dp2228
sI2212
(dp2229
sI2213
(dp2230
sI2214
(dp2231
sI2215
(dp2232
sI2216
(dp2233
sI2217
(dp2234
sI2218
(dp2235
sI2219
(dp2236
sI2220
(dp2237
sI2221
(dp2238
sI2222
(dp2239
sI2223
(dp2240
sI2224
(dp2241
sI2225
(dp2242
sI2226
(dp2243
sI2227
(dp2244
sI2228
(dp2245
sI2229
(dp2246
sI2230
(dp2247
sI2231
(dp2248
sI2232
(dp2249
sI2233
(dp2250
sI2234
(dp2251
sI2235
(dp2252
sI2236
(dp2253
sI2237
(dp2254
sI2238
(dp2255
sI2239
(dp2256
sI2240
(dp2257
sI2241
(dp2258
sI2242
(dp2259
sI2243
(dp2260
sI2244
(dp2261
sI2245
(dp2262
sI2246
(dp2263
sI2247
(dp2264
sI2248
(dp2265
sI2249
(dp2266
sI2250
(dp2267
sI2251
(dp2268
sI2252
(dp2269
sI2253
(dp2270
sI2254
(dp2271
sI2255
(dp2272
sI2256
(dp2273
sI2257
(dp2274
sI2258
(dp2275
sI2259
(dp2276
sI2260
(dp2277
sI2261
(dp2278
sI2262
(dp2279
sI2263
(dp2280
sI2264
(dp2281
sI2265
(dp2282
sI2266
(dp2283
sI2267
(dp2284
sI2268
(dp2285
sI2269
(dp2286
sI2270
(dp2287
sI2271
(dp2288
sI2272
(dp2289
sI2273
(dp2290
sI2274
(dp2291
sI2275
(dp2292
sI2276
(dp2293
sI2277
(dp2294
sI2278
(dp2295
sI2279
(dp2296
sI2280
(dp2297
sI2281
(dp2298
sI2282
(dp2299
sI2283
(dp2300
sI2284
(dp2301
sI2285
(dp2302
sI2286
(dp2303
sI2287
(dp2304
sI2288
(dp2305
sI2289
(dp2306
sI2290
(dp2307
sI2291
(dp2308
sI2292
(dp2309
sI2293
(dp2310
sI2294
(dp2311
sI2295
(dp2312
sI2296
(dp2313
sI2297
(dp2314
sI2298
(dp2315
sI2299
(dp2316
sI2300
(dp2317
sI2301
(dp2318
sI2302
(dp2319
sI2303
(dp2320
sI2304
(dp2321
sI2305
(dp2322
sI2306
(dp2323
sI2307
(dp2324
sI2308
(dp2325
sI2309
(dp2326
sI2310
(dp2327
sI2311
(dp2328
sI2312
(dp2329
sI2313
(dp2330
sI2314
(dp2331
sI2315
(dp2332
sI2316
(dp2333
sI2317
(dp2334
sI2318
(dp2335
sI2319
(dp2336
sI2320
(dp2337
sI2321
(dp2338
sI2322
(dp2339
sI2323
(dp2340
sI2324
(dp2341
sI2325
(dp2342
sI2326
(dp2343
sI2327
(dp2344
sI2328
(dp2345
sI2329
(dp2346
sI2330
(dp2347
sI2331
(dp2348
sI2332
(dp2349
sI2333
(dp2350
sI2334
(dp2351
sI2335
(dp2352
sI2336
(dp2353
sI2337
(dp2354
sI2338
(dp2355
sI2339
(dp2356
sI2340
(dp2357
sI2341
(dp2358
sI2342
(dp2359
sI2343
(dp2360
sI2344
(dp2361
sI2345
(dp2362
sI2346
(dp2363
sI2347
(dp2364
sI2348
(dp2365
sI2349
(dp2366
sI2350
(dp2367
sI2351
(dp2368
sI2352
(dp2369
sI2353
(dp2370
sI2354
(dp2371
sI2355
(dp2372
sI2356
(dp2373
sI2357
(dp2374
sI2358
(dp2375
sI2359
(dp2376
sI2360
(dp2377
sI2361
(dp2378
sI2362
(dp2379
sI2363
(dp2380
sI2364
(dp2381
sI2365
(dp2382
sI2366
(dp2383
sI2367
(dp2384
sI2368
(dp2385
sI2369
(dp2386
sI2370
(dp2387
sI2371
(dp2388
sI2372
(dp2389
sI2373
(dp2390
sI2374
(dp2391
sI2375
(dp2392
sI2376
(dp2393
sI2377
(dp2394
sI2378
(dp2395
sI2379
(dp2396
sI2380
(dp2397
sI2381
(dp2398
sI2382
(dp2399
sI2383
(dp2400
sI2384
(dp2401
sI2385
(dp2402
sI2386
(dp2403
sI2387
(dp2404
sI2388
(dp2405
sI2389
(dp2406
sI2390
(dp2407
sI2391
(dp2408
sI2392
(dp2409
sI2393
(dp2410
sI2394
(dp2411
sI2395
(dp2412
sI2396
(dp2413
sI2397
(dp2414
sI2398
(dp2415
sI2399
(dp2416
sI2400
(dp2417
sI2401
(dp2418
sI2402
(dp2419
sI2403
(dp2420
sI2404
(dp2421
sI2405
(dp2422
sI2406
(dp2423
sI2407
(dp2424
sI2408
(dp2425
sI2409
(dp2426
sI2410
(dp2427
sI2411
(dp2428
sI2412
(dp2429
sI2413
(dp2430
sI2414
(dp2431
sI2415
(dp2432
sI2416
(dp2433
sI2417
(dp2434
sI2418
(dp2435
sI2419
(dp2436
sI2420
(dp2437
sI2421
(dp2438
sI2422
(dp2439
sI2423
(dp2440
sI2424
(dp2441
sI2425
(dp2442
sI2426
(dp2443
sI2427
(dp2444
sI2428
(dp2445
sI2429
(dp2446
sI2430
(dp2447
sI2431
(dp2448
sI2432
(dp2449
sI2433
(dp2450
sI2434
(dp2451
sI2435
(dp2452
sI2436
(dp2453
sI2437
(dp2454
sI2438
(dp2455
sI2439
(dp2456
sI2440
(dp2457
sI2441
(dp2458
sI2442
(dp2459
sI2443
(dp2460
sI2444
(dp2461
sI2445
(dp2462
sI2446
(dp2463
sI2447
(dp2464
sI2448
(dp2465
sI2449
(dp2466
sI2450
(dp2467
sI2451
(dp2468
sI2452
(dp2469
sI2453
(dp2470
sI2454
(dp2471
sI2455
(dp2472
sI2456
(dp2473
sI2457
(dp2474
sI2458
(dp2475
sI2459
(dp2476
sI2460
(dp2477
sI2461
(dp2478
sI2462
(dp2479
sI2463
(dp2480
sI2464
(dp2481
sI2465
(dp2482
sI2466
(dp2483
sI2467
(dp2484
sI2468
(dp2485
sI2469
(dp2486
sI2470
(dp2487
sI2471
(dp2488
sI2472
(dp2489
sI2473
(dp2490
sI2474
(dp2491
sI2475
(dp2492
sI2476
(dp2493
sI2477
(dp2494
sI2478
(dp2495
sI2479
(dp2496
sI2480
(dp2497
sI2481
(dp2498
sI2482
(dp2499
sI2483
(dp2500
sI2484
(dp2501
sI2485
(dp2502
sI2486
(dp2503
sI2487
(dp2504
sI2488
(dp2505
sI2489
(dp2506
sI2490
(dp2507
sI2491
(dp2508
sI2492
(dp2509
sI2493
(dp2510
sI2494
(dp2511
sI2495
(dp2512
sI2496
(dp2513
sI2497
(dp2514
sI2498
(dp2515
sI2499
(dp2516
sI2500
(dp2517
S'train_reconstruct_error'
p2518
g5
(g6
(I0
tS'b'
tRp2519
(I1
(tg9
I00
S'\xab\xf2\xa3B'
tbssI2501
(dp2520
sI2502
(dp2521
sI2503
(dp2522
sI2504
(dp2523
sI2505
(dp2524
sI2506
(dp2525
sI2507
(dp2526
sI2508
(dp2527
sI2509
(dp2528
sI2510
(dp2529
sI2511
(dp2530
sI2512
(dp2531
sI2513
(dp2532
sI2514
(dp2533
sI2515
(dp2534
sI2516
(dp2535
sI2517
(dp2536
sI2518
(dp2537
sI2519
(dp2538
sI2520
(dp2539
sI2521
(dp2540
sI2522
(dp2541
sI2523
(dp2542
sI2524
(dp2543
sI2525
(dp2544
sI2526
(dp2545
sI2527
(dp2546
sI2528
(dp2547
sI2529
(dp2548
sI2530
(dp2549
sI2531
(dp2550
sI2532
(dp2551
sI2533
(dp2552
sI2534
(dp2553
sI2535
(dp2554
sI2536
(dp2555
sI2537
(dp2556
sI2538
(dp2557
sI2539
(dp2558
sI2540
(dp2559
sI2541
(dp2560
sI2542
(dp2561
sI2543
(dp2562
sI2544
(dp2563
sI2545
(dp2564
sI2546
(dp2565
sI2547
(dp2566
sI2548
(dp2567
sI2549
(dp2568
sI2550
(dp2569
sI2551
(dp2570
sI2552
(dp2571
sI2553
(dp2572
sI2554
(dp2573
sI2555
(dp2574
sI2556
(dp2575
sI2557
(dp2576
sI2558
(dp2577
sI2559
(dp2578
sI2560
(dp2579
sI2561
(dp2580
sI2562
(dp2581
sI2563
(dp2582
sI2564
(dp2583
sI2565
(dp2584
sI2566
(dp2585
sI2567
(dp2586
sI2568
(dp2587
sI2569
(dp2588
sI2570
(dp2589
sI2571
(dp2590
sI2572
(dp2591
sI2573
(dp2592
sI2574
(dp2593
sI2575
(dp2594
sI2576
(dp2595
sI2577
(dp2596
sI2578
(dp2597
sI2579
(dp2598
sI2580
(dp2599
sI2581
(dp2600
sI2582
(dp2601
sI2583
(dp2602
sI2584
(dp2603
sI2585
(dp2604
sI2586
(dp2605
sI2587
(dp2606
sI2588
(dp2607
sI2589
(dp2608
sI2590
(dp2609
sI2591
(dp2610
sI2592
(dp2611
sI2593
(dp2612
sI2594
(dp2613
sI2595
(dp2614
sI2596
(dp2615
sI2597
(dp2616
sI2598
(dp2617
sI2599
(dp2618
sI2600
(dp2619
sI2601
(dp2620
sI2602
(dp2621
sI2603
(dp2622
sI2604
(dp2623
sI2605
(dp2624
sI2606
(dp2625
sI2607
(dp2626
sI2608
(dp2627
sI2609
(dp2628
sI2610
(dp2629
sI2611
(dp2630
sI2612
(dp2631
sI2613
(dp2632
sI2614
(dp2633
sI2615
(dp2634
sI2616
(dp2635
sI2617
(dp2636
sI2618
(dp2637
sI2619
(dp2638
sI2620
(dp2639
sI2621
(dp2640
sI2622
(dp2641
sI2623
(dp2642
sI2624
(dp2643
sI2625
(dp2644
sI2626
(dp2645
sI2627
(dp2646
sI2628
(dp2647
sI2629
(dp2648
sI2630
(dp2649
sI2631
(dp2650
sI2632
(dp2651
sI2633
(dp2652
sI2634
(dp2653
sI2635
(dp2654
sI2636
(dp2655
sI2637
(dp2656
sI2638
(dp2657
sI2639
(dp2658
sI2640
(dp2659
sI2641
(dp2660
sI2642
(dp2661
sI2643
(dp2662
sI2644
(dp2663
sI2645
(dp2664
sI2646
(dp2665
sI2647
(dp2666
sI2648
(dp2667
sI2649
(dp2668
sI2650
(dp2669
sI2651
(dp2670
sI2652
(dp2671
sI2653
(dp2672
sI2654
(dp2673
sI2655
(dp2674
sI2656
(dp2675
sI2657
(dp2676
sI2658
(dp2677
sI2659
(dp2678
sI2660
(dp2679
sI2661
(dp2680
sI2662
(dp2681
sI2663
(dp2682
sI2664
(dp2683
sI2665
(dp2684
sI2666
(dp2685
sI2667
(dp2686
sI2668
(dp2687
sI2669
(dp2688
sI2670
(dp2689
sI2671
(dp2690
sI2672
(dp2691
sI2673
(dp2692
sI2674
(dp2693
sI2675
(dp2694
sI2676
(dp2695
sI2677
(dp2696
sI2678
(dp2697
sI2679
(dp2698
sI2680
(dp2699
sI2681
(dp2700
sI2682
(dp2701
sI2683
(dp2702
sI2684
(dp2703
sI2685
(dp2704
sI2686
(dp2705
sI2687
(dp2706
sI2688
(dp2707
sI2689
(dp2708
sI2690
(dp2709
sI2691
(dp2710
sI2692
(dp2711
sI2693
(dp2712
sI2694
(dp2713
sI2695
(dp2714
sI2696
(dp2715
sI2697
(dp2716
sI2698
(dp2717
sI2699
(dp2718
sI2700
(dp2719
sI2701
(dp2720
sI2702
(dp2721
sI2703
(dp2722
sI2704
(dp2723
sI2705
(dp2724
sI2706
(dp2725
sI2707
(dp2726
sI2708
(dp2727
sI2709
(dp2728
sI2710
(dp2729
sI2711
(dp2730
sI2712
(dp2731
sI2713
(dp2732
sI2714
(dp2733
sI2715
(dp2734
sI2716
(dp2735
sI2717
(dp2736
sI2718
(dp2737
sI2719
(dp2738
sI2720
(dp2739
sI2721
(dp2740
sI2722
(dp2741
sI2723
(dp2742
sI2724
(dp2743
sI2725
(dp2744
sI2726
(dp2745
sI2727
(dp2746
sI2728
(dp2747
sI2729
(dp2748
sI2730
(dp2749
sI2731
(dp2750
sI2732
(dp2751
sI2733
(dp2752
sI2734
(dp2753
sI2735
(dp2754
sI2736
(dp2755
sI2737
(dp2756
sI2738
(dp2757
sI2739
(dp2758
sI2740
(dp2759
sI2741
(dp2760
sI2742
(dp2761
sI2743
(dp2762
sI2744
(dp2763
sI2745
(dp2764
sI2746
(dp2765
sI2747
(dp2766
sI2748
(dp2767
sI2749
(dp2768
sI2750
(dp2769
sI2751
(dp2770
sI2752
(dp2771
sI2753
(dp2772
sI2754
(dp2773
sI2755
(dp2774
sI2756
(dp2775
sI2757
(dp2776
sI2758
(dp2777
sI2759
(dp2778
sI2760
(dp2779
sI2761
(dp2780
sI2762
(dp2781
sI2763
(dp2782
sI2764
(dp2783
sI2765
(dp2784
sI2766
(dp2785
sI2767
(dp2786
sI2768
(dp2787
sI2769
(dp2788
sI2770
(dp2789
sI2771
(dp2790
sI2772
(dp2791
sI2773
(dp2792
sI2774
(dp2793
sI2775
(dp2794
sI2776
(dp2795
sI2777
(dp2796
sI2778
(dp2797
sI2779
(dp2798
sI2780
(dp2799
sI2781
(dp2800
sI2782
(dp2801
sI2783
(dp2802
sI2784
(dp2803
sI2785
(dp2804
sI2786
(dp2805
sI2787
(dp2806
sI2788
(dp2807
sI2789
(dp2808
sI2790
(dp2809
sI2791
(dp2810
sI2792
(dp2811
sI2793
(dp2812
sI2794
(dp2813
sI2795
(dp2814
sI2796
(dp2815
sI2797
(dp2816
sI2798
(dp2817
sI2799
(dp2818
sI2800
(dp2819
sI2801
(dp2820
sI2802
(dp2821
sI2803
(dp2822
sI2804
(dp2823
sI2805
(dp2824
sI2806
(dp2825
sI2807
(dp2826
sI2808
(dp2827
sI2809
(dp2828
sI2810
(dp2829
sI2811
(dp2830
sI2812
(dp2831
sI2813
(dp2832
sI2814
(dp2833
sI2815
(dp2834
sI2816
(dp2835
sI2817
(dp2836
sI2818
(dp2837
sI2819
(dp2838
sI2820
(dp2839
sI2821
(dp2840
sI2822
(dp2841
sI2823
(dp2842
sI2824
(dp2843
sI2825
(dp2844
sI2826
(dp2845
sI2827
(dp2846
sI2828
(dp2847
sI2829
(dp2848
sI2830
(dp2849
sI2831
(dp2850
sI2832
(dp2851
sI2833
(dp2852
sI2834
(dp2853
sI2835
(dp2854
sI2836
(dp2855
sI2837
(dp2856
sI2838
(dp2857
sI2839
(dp2858
sI2840
(dp2859
sI2841
(dp2860
sI2842
(dp2861
sI2843
(dp2862
sI2844
(dp2863
sI2845
(dp2864
sI2846
(dp2865
sI2847
(dp2866
sI2848
(dp2867
sI2849
(dp2868
sI2850
(dp2869
sI2851
(dp2870
sI2852
(dp2871
sI2853
(dp2872
sI2854
(dp2873
sI2855
(dp2874
sI2856
(dp2875
sI2857
(dp2876
sI2858
(dp2877
sI2859
(dp2878
sI2860
(dp2879
sI2861
(dp2880
sI2862
(dp2881
sI2863
(dp2882
sI2864
(dp2883
sI2865
(dp2884
sI2866
(dp2885
sI2867
(dp2886
sI2868
(dp2887
sI2869
(dp2888
sI2870
(dp2889
sI2871
(dp2890
sI2872
(dp2891
sI2873
(dp2892
sI2874
(dp2893
sI2875
(dp2894
sI2876
(dp2895
sI2877
(dp2896
sI2878
(dp2897
sI2879
(dp2898
sI2880
(dp2899
sI2881
(dp2900
sI2882
(dp2901
sI2883
(dp2902
sI2884
(dp2903
sI2885
(dp2904
sI2886
(dp2905
sI2887
(dp2906
sI2888
(dp2907
sI2889
(dp2908
sI2890
(dp2909
sI2891
(dp2910
sI2892
(dp2911
sI2893
(dp2912
sI2894
(dp2913
sI2895
(dp2914
sI2896
(dp2915
sI2897
(dp2916
sI2898
(dp2917
sI2899
(dp2918
sI2900
(dp2919
sI2901
(dp2920
sI2902
(dp2921
sI2903
(dp2922
sI2904
(dp2923
sI2905
(dp2924
sI2906
(dp2925
sI2907
(dp2926
sI2908
(dp2927
sI2909
(dp2928
sI2910
(dp2929
sI2911
(dp2930
sI2912
(dp2931
sI2913
(dp2932
sI2914
(dp2933
sI2915
(dp2934
sI2916
(dp2935
sI2917
(dp2936
sI2918
(dp2937
sI2919
(dp2938
sI2920
(dp2939
sI2921
(dp2940
sI2922
(dp2941
sI2923
(dp2942
sI2924
(dp2943
sI2925
(dp2944
sI2926
(dp2945
sI2927
(dp2946
sI2928
(dp2947
sI2929
(dp2948
sI2930
(dp2949
sI2931
(dp2950
sI2932
(dp2951
sI2933
(dp2952
sI2934
(dp2953
sI2935
(dp2954
sI2936
(dp2955
sI2937
(dp2956
sI2938
(dp2957
sI2939
(dp2958
sI2940
(dp2959
sI2941
(dp2960
sI2942
(dp2961
sI2943
(dp2962
sI2944
(dp2963
sI2945
(dp2964
sI2946
(dp2965
sI2947
(dp2966
sI2948
(dp2967
sI2949
(dp2968
sI2950
(dp2969
sI2951
(dp2970
sI2952
(dp2971
sI2953
(dp2972
sI2954
(dp2973
sI2955
(dp2974
sI2956
(dp2975
sI2957
(dp2976
sI2958
(dp2977
sI2959
(dp2978
sI2960
(dp2979
sI2961
(dp2980
sI2962
(dp2981
sI2963
(dp2982
sI2964
(dp2983
sI2965
(dp2984
sI2966
(dp2985
sI2967
(dp2986
sI2968
(dp2987
sI2969
(dp2988
sI2970
(dp2989
sI2971
(dp2990
sI2972
(dp2991
sI2973
(dp2992
sI2974
(dp2993
sI2975
(dp2994
sI2976
(dp2995
sI2977
(dp2996
sI2978
(dp2997
sI2979
(dp2998
sI2980
(dp2999
sI2981
(dp3000
sI2982
(dp3001
sI2983
(dp3002
sI2984
(dp3003
sI2985
(dp3004
sI2986
(dp3005
sI2987
(dp3006
sI2988
(dp3007
sI2989
(dp3008
sI2990
(dp3009
sI2991
(dp3010
sI2992
(dp3011
sI2993
(dp3012
sI2994
(dp3013
sI2995
(dp3014
sI2996
(dp3015
sI2997
(dp3016
sI2998
(dp3017
sI2999
(dp3018
sI3000
(dp3019
S'train_reconstruct_error'
p3020
g5
(g6
(I0
tS'b'
tRp3021
(I1
(tg9
I00
S'\x18\xaa\x9bB'
tbssI3001
(dp3022
sI3002
(dp3023
sI3003
(dp3024
sI3004
(dp3025
sI3005
(dp3026
sI3006
(dp3027
sI3007
(dp3028
sI3008
(dp3029
sI3009
(dp3030
sI3010
(dp3031
sI3011
(dp3032
sI3012
(dp3033
sI3013
(dp3034
sI3014
(dp3035
sI3015
(dp3036
sI3016
(dp3037
sI3017
(dp3038
sI3018
(dp3039
sI3019
(dp3040
sI3020
(dp3041
sI3021
(dp3042
sI3022
(dp3043
sI3023
(dp3044
sI3024
(dp3045
sI3025
(dp3046
sI3026
(dp3047
sI3027
(dp3048
sI3028
(dp3049
sI3029
(dp3050
sI3030
(dp3051
sI3031
(dp3052
sI3032
(dp3053
sI3033
(dp3054
sI3034
(dp3055
sI3035
(dp3056
sI3036
(dp3057
sI3037
(dp3058
sI3038
(dp3059
sI3039
(dp3060
sI3040
(dp3061
sI3041
(dp3062
sI3042
(dp3063
sI3043
(dp3064
sI3044
(dp3065
sI3045
(dp3066
sI3046
(dp3067
sI3047
(dp3068
sI3048
(dp3069
sI3049
(dp3070
sI3050
(dp3071
sI3051
(dp3072
sI3052
(dp3073
sI3053
(dp3074
sI3054
(dp3075
sI3055
(dp3076
sI3056
(dp3077
sI3057
(dp3078
sI3058
(dp3079
sI3059
(dp3080
sI3060
(dp3081
sI3061
(dp3082
sI3062
(dp3083
sI3063
(dp3084
sI3064
(dp3085
sI3065
(dp3086
sI3066
(dp3087
sI3067
(dp3088
sI3068
(dp3089
sI3069
(dp3090
sI3070
(dp3091
sI3071
(dp3092
sI3072
(dp3093
sI3073
(dp3094
sI3074
(dp3095
sI3075
(dp3096
sI3076
(dp3097
sI3077
(dp3098
sI3078
(dp3099
sI3079
(dp3100
sI3080
(dp3101
sI3081
(dp3102
sI3082
(dp3103
sI3083
(dp3104
sI3084
(dp3105
sI3085
(dp3106
sI3086
(dp3107
sI3087
(dp3108
sI3088
(dp3109
sI3089
(dp3110
sI3090
(dp3111
sI3091
(dp3112
sI3092
(dp3113
sI3093
(dp3114
sI3094
(dp3115
sI3095
(dp3116
sI3096
(dp3117
sI3097
(dp3118
sI3098
(dp3119
sI3099
(dp3120
sI3100
(dp3121
sI3101
(dp3122
sI3102
(dp3123
sI3103
(dp3124
sI3104
(dp3125
sI3105
(dp3126
sI3106
(dp3127
sI3107
(dp3128
sI3108
(dp3129
sI3109
(dp3130
sI3110
(dp3131
sI3111
(dp3132
sI3112
(dp3133
sI3113
(dp3134
sI3114
(dp3135
sI3115
(dp3136
sI3116
(dp3137
sI3117
(dp3138
sI3118
(dp3139
sI3119
(dp3140
sI3120
(dp3141
sI3121
(dp3142
sI3122
(dp3143
sI3123
(dp3144
sI3124
(dp3145
sI3125
(dp3146
sI3126
(dp3147
sI3127
(dp3148
sI3128
(dp3149
sI3129
(dp3150
sI3130
(dp3151
sI3131
(dp3152
sI3132
(dp3153
sI3133
(dp3154
sI3134
(dp3155
sI3135
(dp3156
sI3136
(dp3157
sI3137
(dp3158
sI3138
(dp3159
sI3139
(dp3160
sI3140
(dp3161
sI3141
(dp3162
sI3142
(dp3163
sI3143
(dp3164
sI3144
(dp3165
sI3145
(dp3166
sI3146
(dp3167
sI3147
(dp3168
sI3148
(dp3169
sI3149
(dp3170
sI3150
(dp3171
sI3151
(dp3172
sI3152
(dp3173
sI3153
(dp3174
sI3154
(dp3175
sI3155
(dp3176
sI3156
(dp3177
sI3157
(dp3178
sI3158
(dp3179
sI3159
(dp3180
sI3160
(dp3181
sI3161
(dp3182
sI3162
(dp3183
sI3163
(dp3184
sI3164
(dp3185
sI3165
(dp3186
sI3166
(dp3187
sI3167
(dp3188
sI3168
(dp3189
sI3169
(dp3190
sI3170
(dp3191
sI3171
(dp3192
sI3172
(dp3193
sI3173
(dp3194
sI3174
(dp3195
sI3175
(dp3196
sI3176
(dp3197
sI3177
(dp3198
sI3178
(dp3199
sI3179
(dp3200
sI3180
(dp3201
sI3181
(dp3202
sI3182
(dp3203
sI3183
(dp3204
sI3184
(dp3205
sI3185
(dp3206
sI3186
(dp3207
sI3187
(dp3208
sI3188
(dp3209
sI3189
(dp3210
sI3190
(dp3211
sI3191
(dp3212
sI3192
(dp3213
sI3193
(dp3214
sI3194
(dp3215
sI3195
(dp3216
sI3196
(dp3217
sI3197
(dp3218
sI3198
(dp3219
sI3199
(dp3220
sI3200
(dp3221
sI3201
(dp3222
sI3202
(dp3223
sI3203
(dp3224
sI3204
(dp3225
sI3205
(dp3226
sI3206
(dp3227
sI3207
(dp3228
sI3208
(dp3229
sI3209
(dp3230
sI3210
(dp3231
sI3211
(dp3232
sI3212
(dp3233
sI3213
(dp3234
sI3214
(dp3235
sI3215
(dp3236
sI3216
(dp3237
sI3217
(dp3238
sI3218
(dp3239
sI3219
(dp3240
sI3220
(dp3241
sI3221
(dp3242
sI3222
(dp3243
sI3223
(dp3244
sI3224
(dp3245
sI3225
(dp3246
sI3226
(dp3247
sI3227
(dp3248
sI3228
(dp3249
sI3229
(dp3250
sI3230
(dp3251
sI3231
(dp3252
sI3232
(dp3253
sI3233
(dp3254
sI3234
(dp3255
sI3235
(dp3256
sI3236
(dp3257
sI3237
(dp3258
sI3238
(dp3259
sI3239
(dp3260
sI3240
(dp3261
sI3241
(dp3262
sI3242
(dp3263
sI3243
(dp3264
sI3244
(dp3265
sI3245
(dp3266
sI3246
(dp3267
sI3247
(dp3268
sI3248
(dp3269
sI3249
(dp3270
sI3250
(dp3271
sI3251
(dp3272
sI3252
(dp3273
sI3253
(dp3274
sI3254
(dp3275
sI3255
(dp3276
sI3256
(dp3277
sI3257
(dp3278
sI3258
(dp3279
sI3259
(dp3280
sI3260
(dp3281
sI3261
(dp3282
sI3262
(dp3283
sI3263
(dp3284
sI3264
(dp3285
sI3265
(dp3286
sI3266
(dp3287
sI3267
(dp3288
sI3268
(dp3289
sI3269
(dp3290
sI3270
(dp3291
sI3271
(dp3292
sI3272
(dp3293
sI3273
(dp3294
sI3274
(dp3295
sI3275
(dp3296
sI3276
(dp3297
sI3277
(dp3298
sI3278
(dp3299
sI3279
(dp3300
sI3280
(dp3301
sI3281
(dp3302
sI3282
(dp3303
sI3283
(dp3304
sI3284
(dp3305
sI3285
(dp3306
sI3286
(dp3307
sI3287
(dp3308
sI3288
(dp3309
sI3289
(dp3310
sI3290
(dp3311
sI3291
(dp3312
sI3292
(dp3313
sI3293
(dp3314
sI3294
(dp3315
sI3295
(dp3316
sI3296
(dp3317
sI3297
(dp3318
sI3298
(dp3319
sI3299
(dp3320
sI3300
(dp3321
sI3301
(dp3322
sI3302
(dp3323
sI3303
(dp3324
sI3304
(dp3325
sI3305
(dp3326
sI3306
(dp3327
sI3307
(dp3328
sI3308
(dp3329
sI3309
(dp3330
sI3310
(dp3331
sI3311
(dp3332
sI3312
(dp3333
sI3313
(dp3334
sI3314
(dp3335
sI3315
(dp3336
sI3316
(dp3337
sI3317
(dp3338
sI3318
(dp3339
sI3319
(dp3340
sI3320
(dp3341
sI3321
(dp3342
sI3322
(dp3343
sI3323
(dp3344
sI3324
(dp3345
sI3325
(dp3346
sI3326
(dp3347
sI3327
(dp3348
sI3328
(dp3349
sI3329
(dp3350
sI3330
(dp3351
sI3331
(dp3352
sI3332
(dp3353
sI3333
(dp3354
sI3334
(dp3355
sI3335
(dp3356
sI3336
(dp3357
sI3337
(dp3358
sI3338
(dp3359
sI3339
(dp3360
sI3340
(dp3361
sI3341
(dp3362
sI3342
(dp3363
sI3343
(dp3364
sI3344
(dp3365
sI3345
(dp3366
sI3346
(dp3367
sI3347
(dp3368
sI3348
(dp3369
sI3349
(dp3370
sI3350
(dp3371
sI3351
(dp3372
sI3352
(dp3373
sI3353
(dp3374
sI3354
(dp3375
sI3355
(dp3376
sI3356
(dp3377
sI3357
(dp3378
sI3358
(dp3379
sI3359
(dp3380
sI3360
(dp3381
sI3361
(dp3382
sI3362
(dp3383
sI3363
(dp3384
sI3364
(dp3385
sI3365
(dp3386
sI3366
(dp3387
sI3367
(dp3388
sI3368
(dp3389
sI3369
(dp3390
sI3370
(dp3391
sI3371
(dp3392
sI3372
(dp3393
sI3373
(dp3394
sI3374
(dp3395
sI3375
(dp3396
sI3376
(dp3397
sI3377
(dp3398
sI3378
(dp3399
sI3379
(dp3400
sI3380
(dp3401
sI3381
(dp3402
sI3382
(dp3403
sI3383
(dp3404
sI3384
(dp3405
sI3385
(dp3406
sI3386
(dp3407
sI3387
(dp3408
sI3388
(dp3409
sI3389
(dp3410
sI3390
(dp3411
sI3391
(dp3412
sI3392
(dp3413
sI3393
(dp3414
sI3394
(dp3415
sI3395
(dp3416
sI3396
(dp3417
sI3397
(dp3418
sI3398
(dp3419
sI3399
(dp3420
sI3400
(dp3421
sI3401
(dp3422
sI3402
(dp3423
sI3403
(dp3424
sI3404
(dp3425
sI3405
(dp3426
sI3406
(dp3427
sI3407
(dp3428
sI3408
(dp3429
sI3409
(dp3430
sI3410
(dp3431
sI3411
(dp3432
sI3412
(dp3433
sI3413
(dp3434
sI3414
(dp3435
sI3415
(dp3436
sI3416
(dp3437
sI3417
(dp3438
sI3418
(dp3439
sI3419
(dp3440
sI3420
(dp3441
sI3421
(dp3442
sI3422
(dp3443
sI3423
(dp3444
sI3424
(dp3445
sI3425
(dp3446
sI3426
(dp3447
sI3427
(dp3448
sI3428
(dp3449
sI3429
(dp3450
sI3430
(dp3451
sI3431
(dp3452
sI3432
(dp3453
sI3433
(dp3454
sI3434
(dp3455
sI3435
(dp3456
sI3436
(dp3457
sI3437
(dp3458
sI3438
(dp3459
sI3439
(dp3460
sI3440
(dp3461
sI3441
(dp3462
sI3442
(dp3463
sI3443
(dp3464
sI3444
(dp3465
sI3445
(dp3466
sI3446
(dp3467
sI3447
(dp3468
sI3448
(dp3469
sI3449
(dp3470
sI3450
(dp3471
sI3451
(dp3472
sI3452
(dp3473
sI3453
(dp3474
sI3454
(dp3475
sI3455
(dp3476
sI3456
(dp3477
sI3457
(dp3478
sI3458
(dp3479
sI3459
(dp3480
sI3460
(dp3481
sI3461
(dp3482
sI3462
(dp3483
sI3463
(dp3484
sI3464
(dp3485
sI3465
(dp3486
sI3466
(dp3487
sI3467
(dp3488
sI3468
(dp3489
sI3469
(dp3490
sI3470
(dp3491
sI3471
(dp3492
sI3472
(dp3493
sI3473
(dp3494
sI3474
(dp3495
sI3475
(dp3496
sI3476
(dp3497
sI3477
(dp3498
sI3478
(dp3499
sI3479
(dp3500
sI3480
(dp3501
sI3481
(dp3502
sI3482
(dp3503
sI3483
(dp3504
sI3484
(dp3505
sI3485
(dp3506
sI3486
(dp3507
sI3487
(dp3508
sI3488
(dp3509
sI3489
(dp3510
sI3490
(dp3511
sI3491
(dp3512
sI3492
(dp3513
sI3493
(dp3514
sI3494
(dp3515
sI3495
(dp3516
sI3496
(dp3517
sI3497
(dp3518
sI3498
(dp3519
sI3499
(dp3520
sI3500
(dp3521
S'train_reconstruct_error'
p3522
g5
(g6
(I0
tS'b'
tRp3523
(I1
(tg9
I00
S';\xc9\x95B'
tbssI3501
(dp3524
sI3502
(dp3525
sI3503
(dp3526
sI3504
(dp3527
sI3505
(dp3528
sI3506
(dp3529
sI3507
(dp3530
sI3508
(dp3531
sI3509
(dp3532
sI3510
(dp3533
sI3511
(dp3534
sI3512
(dp3535
sI3513
(dp3536
sI3514
(dp3537
sI3515
(dp3538
sI3516
(dp3539
sI3517
(dp3540
sI3518
(dp3541
sI3519
(dp3542
sI3520
(dp3543
sI3521
(dp3544
sI3522
(dp3545
sI3523
(dp3546
sI3524
(dp3547
sI3525
(dp3548
sI3526
(dp3549
sI3527
(dp3550
sI3528
(dp3551
sI3529
(dp3552
sI3530
(dp3553
sI3531
(dp3554
sI3532
(dp3555
sI3533
(dp3556
sI3534
(dp3557
sI3535
(dp3558
sI3536
(dp3559
sI3537
(dp3560
sI3538
(dp3561
sI3539
(dp3562
sI3540
(dp3563
sI3541
(dp3564
sI3542
(dp3565
sI3543
(dp3566
sI3544
(dp3567
sI3545
(dp3568
sI3546
(dp3569
sI3547
(dp3570
sI3548
(dp3571
sI3549
(dp3572
sI3550
(dp3573
sI3551
(dp3574
sI3552
(dp3575
sI3553
(dp3576
sI3554
(dp3577
sI3555
(dp3578
sI3556
(dp3579
sI3557
(dp3580
sI3558
(dp3581
sI3559
(dp3582
sI3560
(dp3583
sI3561
(dp3584
sI3562
(dp3585
sI3563
(dp3586
sI3564
(dp3587
sI3565
(dp3588
sI3566
(dp3589
sI3567
(dp3590
sI3568
(dp3591
sI3569
(dp3592
sI3570
(dp3593
sI3571
(dp3594
sI3572
(dp3595
sI3573
(dp3596
sI3574
(dp3597
sI3575
(dp3598
sI3576
(dp3599
sI3577
(dp3600
sI3578
(dp3601
sI3579
(dp3602
sI3580
(dp3603
sI3581
(dp3604
sI3582
(dp3605
sI3583
(dp3606
sI3584
(dp3607
sI3585
(dp3608
sI3586
(dp3609
sI3587
(dp3610
sI3588
(dp3611
sI3589
(dp3612
sI3590
(dp3613
sI3591
(dp3614
sI3592
(dp3615
sI3593
(dp3616
sI3594
(dp3617
sI3595
(dp3618
sI3596
(dp3619
sI3597
(dp3620
sI3598
(dp3621
sI3599
(dp3622
sI3600
(dp3623
sI3601
(dp3624
sI3602
(dp3625
sI3603
(dp3626
sI3604
(dp3627
sI3605
(dp3628
sI3606
(dp3629
sI3607
(dp3630
sI3608
(dp3631
sI3609
(dp3632
sI3610
(dp3633
sI3611
(dp3634
sI3612
(dp3635
sI3613
(dp3636
sI3614
(dp3637
sI3615
(dp3638
sI3616
(dp3639
sI3617
(dp3640
sI3618
(dp3641
sI3619
(dp3642
sI3620
(dp3643
sI3621
(dp3644
sI3622
(dp3645
sI3623
(dp3646
sI3624
(dp3647
sI3625
(dp3648
sI3626
(dp3649
sI3627
(dp3650
sI3628
(dp3651
sI3629
(dp3652
sI3630
(dp3653
sI3631
(dp3654
sI3632
(dp3655
sI3633
(dp3656
sI3634
(dp3657
sI3635
(dp3658
sI3636
(dp3659
sI3637
(dp3660
sI3638
(dp3661
sI3639
(dp3662
sI3640
(dp3663
sI3641
(dp3664
sI3642
(dp3665
sI3643
(dp3666
sI3644
(dp3667
sI3645
(dp3668
sI3646
(dp3669
sI3647
(dp3670
sI3648
(dp3671
sI3649
(dp3672
sI3650
(dp3673
sI3651
(dp3674
sI3652
(dp3675
sI3653
(dp3676
sI3654
(dp3677
sI3655
(dp3678
sI3656
(dp3679
sI3657
(dp3680
sI3658
(dp3681
sI3659
(dp3682
sI3660
(dp3683
sI3661
(dp3684
sI3662
(dp3685
sI3663
(dp3686
sI3664
(dp3687
sI3665
(dp3688
sI3666
(dp3689
sI3667
(dp3690
sI3668
(dp3691
sI3669
(dp3692
sI3670
(dp3693
sI3671
(dp3694
sI3672
(dp3695
sI3673
(dp3696
sI3674
(dp3697
sI3675
(dp3698
sI3676
(dp3699
sI3677
(dp3700
sI3678
(dp3701
sI3679
(dp3702
sI3680
(dp3703
sI3681
(dp3704
sI3682
(dp3705
sI3683
(dp3706
sI3684
(dp3707
sI3685
(dp3708
sI3686
(dp3709
sI3687
(dp3710
sI3688
(dp3711
sI3689
(dp3712
sI3690
(dp3713
sI3691
(dp3714
sI3692
(dp3715
sI3693
(dp3716
sI3694
(dp3717
sI3695
(dp3718
sI3696
(dp3719
sI3697
(dp3720
sI3698
(dp3721
sI3699
(dp3722
sI3700
(dp3723
sI3701
(dp3724
sI3702
(dp3725
sI3703
(dp3726
sI3704
(dp3727
sI3705
(dp3728
sI3706
(dp3729
sI3707
(dp3730
sI3708
(dp3731
sI3709
(dp3732
sI3710
(dp3733
sI3711
(dp3734
sI3712
(dp3735
sI3713
(dp3736
sI3714
(dp3737
sI3715
(dp3738
sI3716
(dp3739
sI3717
(dp3740
sI3718
(dp3741
sI3719
(dp3742
sI3720
(dp3743
sI3721
(dp3744
sI3722
(dp3745
sI3723
(dp3746
sI3724
(dp3747
sI3725
(dp3748
sI3726
(dp3749
sI3727
(dp3750
sI3728
(dp3751
sI3729
(dp3752
sI3730
(dp3753
sI3731
(dp3754
sI3732
(dp3755
sI3733
(dp3756
sI3734
(dp3757
sI3735
(dp3758
sI3736
(dp3759
sI3737
(dp3760
sI3738
(dp3761
sI3739
(dp3762
sI3740
(dp3763
sI3741
(dp3764
sI3742
(dp3765
sI3743
(dp3766
sI3744
(dp3767
sI3745
(dp3768
sI3746
(dp3769
sI3747
(dp3770
sI3748
(dp3771
sI3749
(dp3772
sI3750
(dp3773
sI3751
(dp3774
sI3752
(dp3775
sI3753
(dp3776
sI3754
(dp3777
sI3755
(dp3778
sI3756
(dp3779
sI3757
(dp3780
sI3758
(dp3781
sI3759
(dp3782
sI3760
(dp3783
sI3761
(dp3784
sI3762
(dp3785
sI3763
(dp3786
sI3764
(dp3787
sI3765
(dp3788
sI3766
(dp3789
sI3767
(dp3790
sI3768
(dp3791
sI3769
(dp3792
sI3770
(dp3793
sI3771
(dp3794
sI3772
(dp3795
sI3773
(dp3796
sI3774
(dp3797
sI3775
(dp3798
sI3776
(dp3799
sI3777
(dp3800
sI3778
(dp3801
sI3779
(dp3802
sI3780
(dp3803
sI3781
(dp3804
sI3782
(dp3805
sI3783
(dp3806
sI3784
(dp3807
sI3785
(dp3808
sI3786
(dp3809
sI3787
(dp3810
sI3788
(dp3811
sI3789
(dp3812
sI3790
(dp3813
sI3791
(dp3814
sI3792
(dp3815
sI3793
(dp3816
sI3794
(dp3817
sI3795
(dp3818
sI3796
(dp3819
sI3797
(dp3820
sI3798
(dp3821
sI3799
(dp3822
sI3800
(dp3823
sI3801
(dp3824
sI3802
(dp3825
sI3803
(dp3826
sI3804
(dp3827
sI3805
(dp3828
sI3806
(dp3829
sI3807
(dp3830
sI3808
(dp3831
sI3809
(dp3832
sI3810
(dp3833
sI3811
(dp3834
sI3812
(dp3835
sI3813
(dp3836
sI3814
(dp3837
sI3815
(dp3838
sI3816
(dp3839
sI3817
(dp3840
sI3818
(dp3841
sI3819
(dp3842
sI3820
(dp3843
sI3821
(dp3844
sI3822
(dp3845
sI3823
(dp3846
sI3824
(dp3847
sI3825
(dp3848
sI3826
(dp3849
sI3827
(dp3850
sI3828
(dp3851
sI3829
(dp3852
sI3830
(dp3853
sI3831
(dp3854
sI3832
(dp3855
sI3833
(dp3856
sI3834
(dp3857
sI3835
(dp3858
sI3836
(dp3859
sI3837
(dp3860
sI3838
(dp3861
sI3839
(dp3862
sI3840
(dp3863
sI3841
(dp3864
sI3842
(dp3865
sI3843
(dp3866
sI3844
(dp3867
sI3845
(dp3868
sI3846
(dp3869
sI3847
(dp3870
sI3848
(dp3871
sI3849
(dp3872
sI3850
(dp3873
sI3851
(dp3874
sI3852
(dp3875
sI3853
(dp3876
sI3854
(dp3877
sI3855
(dp3878
sI3856
(dp3879
sI3857
(dp3880
sI3858
(dp3881
sI3859
(dp3882
sI3860
(dp3883
sI3861
(dp3884
sI3862
(dp3885
sI3863
(dp3886
sI3864
(dp3887
sI3865
(dp3888
sI3866
(dp3889
sI3867
(dp3890
sI3868
(dp3891
sI3869
(dp3892
sI3870
(dp3893
sI3871
(dp3894
sI3872
(dp3895
sI3873
(dp3896
sI3874
(dp3897
sI3875
(dp3898
sI3876
(dp3899
sI3877
(dp3900
sI3878
(dp3901
sI3879
(dp3902
sI3880
(dp3903
sI3881
(dp3904
sI3882
(dp3905
sI3883
(dp3906
sI3884
(dp3907
sI3885
(dp3908
sI3886
(dp3909
sI3887
(dp3910
sI3888
(dp3911
sI3889
(dp3912
sI3890
(dp3913
sI3891
(dp3914
sI3892
(dp3915
sI3893
(dp3916
sI3894
(dp3917
sI3895
(dp3918
sI3896
(dp3919
sI3897
(dp3920
sI3898
(dp3921
sI3899
(dp3922
sI3900
(dp3923
sI3901
(dp3924
sI3902
(dp3925
sI3903
(dp3926
sI3904
(dp3927
sI3905
(dp3928
sI3906
(dp3929
sI3907
(dp3930
sI3908
(dp3931
sI3909
(dp3932
sI3910
(dp3933
sI3911
(dp3934
sI3912
(dp3935
sI3913
(dp3936
sI3914
(dp3937
sI3915
(dp3938
sI3916
(dp3939
sI3917
(dp3940
sI3918
(dp3941
sI3919
(dp3942
sI3920
(dp3943
sI3921
(dp3944
sI3922
(dp3945
sI3923
(dp3946
sI3924
(dp3947
sI3925
(dp3948
sI3926
(dp3949
sI3927
(dp3950
sI3928
(dp3951
sI3929
(dp3952
sI3930
(dp3953
sI3931
(dp3954
sI3932
(dp3955
sI3933
(dp3956
sI3934
(dp3957
sI3935
(dp3958
sI3936
(dp3959
sI3937
(dp3960
sI3938
(dp3961
sI3939
(dp3962
sI3940
(dp3963
sI3941
(dp3964
sI3942
(dp3965
sI3943
(dp3966
sI3944
(dp3967
sI3945
(dp3968
sI3946
(dp3969
sI3947
(dp3970
sI3948
(dp3971
sI3949
(dp3972
sI3950
(dp3973
sI3951
(dp3974
sI3952
(dp3975
sI3953
(dp3976
sI3954
(dp3977
sI3955
(dp3978
sI3956
(dp3979
sI3957
(dp3980
sI3958
(dp3981
sI3959
(dp3982
sI3960
(dp3983
sI3961
(dp3984
sI3962
(dp3985
sI3963
(dp3986
sI3964
(dp3987
sI3965
(dp3988
sI3966
(dp3989
sI3967
(dp3990
sI3968
(dp3991
sI3969
(dp3992
sI3970
(dp3993
sI3971
(dp3994
sI3972
(dp3995
sI3973
(dp3996
sI3974
(dp3997
sI3975
(dp3998
sI3976
(dp3999
sI3977
(dp4000
sI3978
(dp4001
sI3979
(dp4002
sI3980
(dp4003
sI3981
(dp4004
sI3982
(dp4005
sI3983
(dp4006
sI3984
(dp4007
sI3985
(dp4008
sI3986
(dp4009
sI3987
(dp4010
sI3988
(dp4011
sI3989
(dp4012
sI3990
(dp4013
sI3991
(dp4014
sI3992
(dp4015
sI3993
(dp4016
sI3994
(dp4017
sI3995
(dp4018
sI3996
(dp4019
sI3997
(dp4020
sI3998
(dp4021
sI3999
(dp4022
sI4000
(dp4023
S'train_reconstruct_error'
p4024
g5
(g6
(I0
tS'b'
tRp4025
(I1
(tg9
I00
S'\xa0\xd4\x87B'
tbssI4001
(dp4026
sI4002
(dp4027
sI4003
(dp4028
sI4004
(dp4029
sI4005
(dp4030
sI4006
(dp4031
sI4007
(dp4032
sI4008
(dp4033
sI4009
(dp4034
sI4010
(dp4035
sI4011
(dp4036
sI4012
(dp4037
sI4013
(dp4038
sI4014
(dp4039
sI4015
(dp4040
sI4016
(dp4041
sI4017
(dp4042
sI4018
(dp4043
sI4019
(dp4044
sI4020
(dp4045
sI4021
(dp4046
sI4022
(dp4047
sI4023
(dp4048
sI4024
(dp4049
sI4025
(dp4050
sI4026
(dp4051
sI4027
(dp4052
sI4028
(dp4053
sI4029
(dp4054
sI4030
(dp4055
sI4031
(dp4056
sI4032
(dp4057
sI4033
(dp4058
sI4034
(dp4059
sI4035
(dp4060
sI4036
(dp4061
sI4037
(dp4062
sI4038
(dp4063
sI4039
(dp4064
sI4040
(dp4065
sI4041
(dp4066
sI4042
(dp4067
sI4043
(dp4068
sI4044
(dp4069
sI4045
(dp4070
sI4046
(dp4071
sI4047
(dp4072
sI4048
(dp4073
sI4049
(dp4074
sI4050
(dp4075
sI4051
(dp4076
sI4052
(dp4077
sI4053
(dp4078
sI4054
(dp4079
sI4055
(dp4080
sI4056
(dp4081
sI4057
(dp4082
sI4058
(dp4083
sI4059
(dp4084
sI4060
(dp4085
sI4061
(dp4086
sI4062
(dp4087
sI4063
(dp4088
sI4064
(dp4089
sI4065
(dp4090
sI4066
(dp4091
sI4067
(dp4092
sI4068
(dp4093
sI4069
(dp4094
sI4070
(dp4095
sI4071
(dp4096
sI4072
(dp4097
sI4073
(dp4098
sI4074
(dp4099
sI4075
(dp4100
sI4076
(dp4101
sI4077
(dp4102
sI4078
(dp4103
sI4079
(dp4104
sI4080
(dp4105
sI4081
(dp4106
sI4082
(dp4107
sI4083
(dp4108
sI4084
(dp4109
sI4085
(dp4110
sI4086
(dp4111
sI4087
(dp4112
sI4088
(dp4113
sI4089
(dp4114
sI4090
(dp4115
sI4091
(dp4116
sI4092
(dp4117
sI4093
(dp4118
sI4094
(dp4119
sI4095
(dp4120
sI4096
(dp4121
sI4097
(dp4122
sI4098
(dp4123
sI4099
(dp4124
sI4100
(dp4125
sI4101
(dp4126
sI4102
(dp4127
sI4103
(dp4128
sI4104
(dp4129
sI4105
(dp4130
sI4106
(dp4131
sI4107
(dp4132
sI4108
(dp4133
sI4109
(dp4134
sI4110
(dp4135
sI4111
(dp4136
sI4112
(dp4137
sI4113
(dp4138
sI4114
(dp4139
sI4115
(dp4140
sI4116
(dp4141
sI4117
(dp4142
sI4118
(dp4143
sI4119
(dp4144
sI4120
(dp4145
sI4121
(dp4146
sI4122
(dp4147
sI4123
(dp4148
sI4124
(dp4149
sI4125
(dp4150
sI4126
(dp4151
sI4127
(dp4152
sI4128
(dp4153
sI4129
(dp4154
sI4130
(dp4155
sI4131
(dp4156
sI4132
(dp4157
sI4133
(dp4158
sI4134
(dp4159
sI4135
(dp4160
sI4136
(dp4161
sI4137
(dp4162
sI4138
(dp4163
sI4139
(dp4164
sI4140
(dp4165
sI4141
(dp4166
sI4142
(dp4167
sI4143
(dp4168
sI4144
(dp4169
sI4145
(dp4170
sI4146
(dp4171
sI4147
(dp4172
sI4148
(dp4173
sI4149
(dp4174
sI4150
(dp4175
sI4151
(dp4176
sI4152
(dp4177
sI4153
(dp4178
sI4154
(dp4179
sI4155
(dp4180
sI4156
(dp4181
sI4157
(dp4182
sI4158
(dp4183
sI4159
(dp4184
sI4160
(dp4185
sI4161
(dp4186
sI4162
(dp4187
sI4163
(dp4188
sI4164
(dp4189
sI4165
(dp4190
sI4166
(dp4191
sI4167
(dp4192
sI4168
(dp4193
sI4169
(dp4194
sI4170
(dp4195
sI4171
(dp4196
sI4172
(dp4197
sI4173
(dp4198
sI4174
(dp4199
sI4175
(dp4200
sI4176
(dp4201
sI4177
(dp4202
sI4178
(dp4203
sI4179
(dp4204
sI4180
(dp4205
sI4181
(dp4206
sI4182
(dp4207
sI4183
(dp4208
sI4184
(dp4209
sI4185
(dp4210
sI4186
(dp4211
sI4187
(dp4212
sI4188
(dp4213
sI4189
(dp4214
sI4190
(dp4215
sI4191
(dp4216
sI4192
(dp4217
sI4193
(dp4218
sI4194
(dp4219
sI4195
(dp4220
sI4196
(dp4221
sI4197
(dp4222
sI4198
(dp4223
sI4199
(dp4224
sI4200
(dp4225
sI4201
(dp4226
sI4202
(dp4227
sI4203
(dp4228
sI4204
(dp4229
sI4205
(dp4230
sI4206
(dp4231
sI4207
(dp4232
sI4208
(dp4233
sI4209
(dp4234
sI4210
(dp4235
sI4211
(dp4236
sI4212
(dp4237
sI4213
(dp4238
sI4214
(dp4239
sI4215
(dp4240
sI4216
(dp4241
sI4217
(dp4242
sI4218
(dp4243
sI4219
(dp4244
sI4220
(dp4245
sI4221
(dp4246
sI4222
(dp4247
sI4223
(dp4248
sI4224
(dp4249
sI4225
(dp4250
sI4226
(dp4251
sI4227
(dp4252
sI4228
(dp4253
sI4229
(dp4254
sI4230
(dp4255
sI4231
(dp4256
sI4232
(dp4257
sI4233
(dp4258
sI4234
(dp4259
sI4235
(dp4260
sI4236
(dp4261
sI4237
(dp4262
sI4238
(dp4263
sI4239
(dp4264
sI4240
(dp4265
sI4241
(dp4266
sI4242
(dp4267
sI4243
(dp4268
sI4244
(dp4269
sI4245
(dp4270
sI4246
(dp4271
sI4247
(dp4272
sI4248
(dp4273
sI4249
(dp4274
sI4250
(dp4275
sI4251
(dp4276
sI4252
(dp4277
sI4253
(dp4278
sI4254
(dp4279
sI4255
(dp4280
sI4256
(dp4281
sI4257
(dp4282
sI4258
(dp4283
sI4259
(dp4284
sI4260
(dp4285
sI4261
(dp4286
sI4262
(dp4287
sI4263
(dp4288
sI4264
(dp4289
sI4265
(dp4290
sI4266
(dp4291
sI4267
(dp4292
sI4268
(dp4293
sI4269
(dp4294
sI4270
(dp4295
sI4271
(dp4296
sI4272
(dp4297
sI4273
(dp4298
sI4274
(dp4299
sI4275
(dp4300
sI4276
(dp4301
sI4277
(dp4302
sI4278
(dp4303
sI4279
(dp4304
sI4280
(dp4305
sI4281
(dp4306
sI4282
(dp4307
sI4283
(dp4308
sI4284
(dp4309
sI4285
(dp4310
sI4286
(dp4311
sI4287
(dp4312
sI4288
(dp4313
sI4289
(dp4314
sI4290
(dp4315
sI4291
(dp4316
sI4292
(dp4317
sI4293
(dp4318
sI4294
(dp4319
sI4295
(dp4320
sI4296
(dp4321
sI4297
(dp4322
sI4298
(dp4323
sI4299
(dp4324
sI4300
(dp4325
sI4301
(dp4326
sI4302
(dp4327
sI4303
(dp4328
sI4304
(dp4329
sI4305
(dp4330
sI4306
(dp4331
sI4307
(dp4332
sI4308
(dp4333
sI4309
(dp4334
sI4310
(dp4335
sI4311
(dp4336
sI4312
(dp4337
sI4313
(dp4338
sI4314
(dp4339
sI4315
(dp4340
sI4316
(dp4341
sI4317
(dp4342
sI4318
(dp4343
sI4319
(dp4344
sI4320
(dp4345
sI4321
(dp4346
sI4322
(dp4347
sI4323
(dp4348
sI4324
(dp4349
sI4325
(dp4350
sI4326
(dp4351
sI4327
(dp4352
sI4328
(dp4353
sI4329
(dp4354
sI4330
(dp4355
sI4331
(dp4356
sI4332
(dp4357
sI4333
(dp4358
sI4334
(dp4359
sI4335
(dp4360
sI4336
(dp4361
sI4337
(dp4362
sI4338
(dp4363
sI4339
(dp4364
sI4340
(dp4365
sI4341
(dp4366
sI4342
(dp4367
sI4343
(dp4368
sI4344
(dp4369
sI4345
(dp4370
sI4346
(dp4371
sI4347
(dp4372
sI4348
(dp4373
sI4349
(dp4374
sI4350
(dp4375
sI4351
(dp4376
sI4352
(dp4377
sI4353
(dp4378
sI4354
(dp4379
sI4355
(dp4380
sI4356
(dp4381
sI4357
(dp4382
sI4358
(dp4383
sI4359
(dp4384
sI4360
(dp4385
sI4361
(dp4386
sI4362
(dp4387
sI4363
(dp4388
sI4364
(dp4389
sI4365
(dp4390
sI4366
(dp4391
sI4367
(dp4392
sI4368
(dp4393
sI4369
(dp4394
sI4370
(dp4395
sI4371
(dp4396
sI4372
(dp4397
sI4373
(dp4398
sI4374
(dp4399
sI4375
(dp4400
sI4376
(dp4401
sI4377
(dp4402
sI4378
(dp4403
sI4379
(dp4404
sI4380
(dp4405
sI4381
(dp4406
sI4382
(dp4407
sI4383
(dp4408
sI4384
(dp4409
sI4385
(dp4410
sI4386
(dp4411
sI4387
(dp4412
sI4388
(dp4413
sI4389
(dp4414
sI4390
(dp4415
sI4391
(dp4416
sI4392
(dp4417
sI4393
(dp4418
sI4394
(dp4419
sI4395
(dp4420
sI4396
(dp4421
sI4397
(dp4422
sI4398
(dp4423
sI4399
(dp4424
sI4400
(dp4425
sI4401
(dp4426
sI4402
(dp4427
sI4403
(dp4428
sI4404
(dp4429
sI4405
(dp4430
sI4406
(dp4431
sI4407
(dp4432
sI4408
(dp4433
sI4409
(dp4434
sI4410
(dp4435
sI4411
(dp4436
sI4412
(dp4437
sI4413
(dp4438
sI4414
(dp4439
sI4415
(dp4440
sI4416
(dp4441
sI4417
(dp4442
sI4418
(dp4443
sI4419
(dp4444
sI4420
(dp4445
sI4421
(dp4446
sI4422
(dp4447
sI4423
(dp4448
sI4424
(dp4449
sI4425
(dp4450
sI4426
(dp4451
sI4427
(dp4452
sI4428
(dp4453
sI4429
(dp4454
sI4430
(dp4455
sI4431
(dp4456
sI4432
(dp4457
sI4433
(dp4458
sI4434
(dp4459
sI4435
(dp4460
sI4436
(dp4461
sI4437
(dp4462
sI4438
(dp4463
sI4439
(dp4464
sI4440
(dp4465
sI4441
(dp4466
sI4442
(dp4467
sI4443
(dp4468
sI4444
(dp4469
sI4445
(dp4470
sI4446
(dp4471
sI4447
(dp4472
sI4448
(dp4473
sI4449
(dp4474
sI4450
(dp4475
sI4451
(dp4476
sI4452
(dp4477
sI4453
(dp4478
sI4454
(dp4479
sI4455
(dp4480
sI4456
(dp4481
sI4457
(dp4482
sI4458
(dp4483
sI4459
(dp4484
sI4460
(dp4485
sI4461
(dp4486
sI4462
(dp4487
sI4463
(dp4488
sI4464
(dp4489
sI4465
(dp4490
sI4466
(dp4491
sI4467
(dp4492
sI4468
(dp4493
sI4469
(dp4494
sI4470
(dp4495
sI4471
(dp4496
sI4472
(dp4497
sI4473
(dp4498
sI4474
(dp4499
sI4475
(dp4500
sI4476
(dp4501
sI4477
(dp4502
sI4478
(dp4503
sI4479
(dp4504
sI4480
(dp4505
sI4481
(dp4506
sI4482
(dp4507
sI4483
(dp4508
sI4484
(dp4509
sI4485
(dp4510
sI4486
(dp4511
sI4487
(dp4512
sI4488
(dp4513
sI4489
(dp4514
sI4490
(dp4515
sI4491
(dp4516
sI4492
(dp4517
sI4493
(dp4518
sI4494
(dp4519
sI4495
(dp4520
sI4496
(dp4521
sI4497
(dp4522
sI4498
(dp4523
sI4499
(dp4524
sI4500
(dp4525
S'train_reconstruct_error'
p4526
g5
(g6
(I0
tS'b'
tRp4527
(I1
(tg9
I00
S'\xd7(\x87B'
tbssI4501
(dp4528
sI4502
(dp4529
sI4503
(dp4530
sI4504
(dp4531
sI4505
(dp4532
sI4506
(dp4533
sI4507
(dp4534
sI4508
(dp4535
sI4509
(dp4536
sI4510
(dp4537
sI4511
(dp4538
sI4512
(dp4539
sI4513
(dp4540
sI4514
(dp4541
sI4515
(dp4542
sI4516
(dp4543
sI4517
(dp4544
sI4518
(dp4545
sI4519
(dp4546
sI4520
(dp4547
sI4521
(dp4548
sI4522
(dp4549
sI4523
(dp4550
sI4524
(dp4551
sI4525
(dp4552
sI4526
(dp4553
sI4527
(dp4554
sI4528
(dp4555
sI4529
(dp4556
sI4530
(dp4557
sI4531
(dp4558
sI4532
(dp4559
sI4533
(dp4560
sI4534
(dp4561
sI4535
(dp4562
sI4536
(dp4563
sI4537
(dp4564
sI4538
(dp4565
sI4539
(dp4566
sI4540
(dp4567
sI4541
(dp4568
sI4542
(dp4569
sI4543
(dp4570
sI4544
(dp4571
sI4545
(dp4572
sI4546
(dp4573
sI4547
(dp4574
sI4548
(dp4575
sI4549
(dp4576
sI4550
(dp4577
sI4551
(dp4578
sI4552
(dp4579
sI4553
(dp4580
sI4554
(dp4581
sI4555
(dp4582
sI4556
(dp4583
sI4557
(dp4584
sI4558
(dp4585
sI4559
(dp4586
sI4560
(dp4587
sI4561
(dp4588
sI4562
(dp4589
sI4563
(dp4590
sI4564
(dp4591
sI4565
(dp4592
sI4566
(dp4593
sI4567
(dp4594
sI4568
(dp4595
sI4569
(dp4596
sI4570
(dp4597
sI4571
(dp4598
sI4572
(dp4599
sI4573
(dp4600
sI4574
(dp4601
sI4575
(dp4602
sI4576
(dp4603
sI4577
(dp4604
sI4578
(dp4605
sI4579
(dp4606
sI4580
(dp4607
sI4581
(dp4608
sI4582
(dp4609
sI4583
(dp4610
sI4584
(dp4611
sI4585
(dp4612
sI4586
(dp4613
sI4587
(dp4614
sI4588
(dp4615
sI4589
(dp4616
sI4590
(dp4617
sI4591
(dp4618
sI4592
(dp4619
sI4593
(dp4620
sI4594
(dp4621
sI4595
(dp4622
sI4596
(dp4623
sI4597
(dp4624
sI4598
(dp4625
sI4599
(dp4626
sI4600
(dp4627
sI4601
(dp4628
sI4602
(dp4629
sI4603
(dp4630
sI4604
(dp4631
sI4605
(dp4632
sI4606
(dp4633
sI4607
(dp4634
sI4608
(dp4635
sI4609
(dp4636
sI4610
(dp4637
sI4611
(dp4638
sI4612
(dp4639
sI4613
(dp4640
sI4614
(dp4641
sI4615
(dp4642
sI4616
(dp4643
sI4617
(dp4644
sI4618
(dp4645
sI4619
(dp4646
sI4620
(dp4647
sI4621
(dp4648
sI4622
(dp4649
sI4623
(dp4650
sI4624
(dp4651
sI4625
(dp4652
sI4626
(dp4653
sI4627
(dp4654
sI4628
(dp4655
sI4629
(dp4656
sI4630
(dp4657
sI4631
(dp4658
sI4632
(dp4659
sI4633
(dp4660
sI4634
(dp4661
sI4635
(dp4662
sI4636
(dp4663
sI4637
(dp4664
sI4638
(dp4665
sI4639
(dp4666
sI4640
(dp4667
sI4641
(dp4668
sI4642
(dp4669
sI4643
(dp4670
sI4644
(dp4671
sI4645
(dp4672
sI4646
(dp4673
sI4647
(dp4674
sI4648
(dp4675
sI4649
(dp4676
sI4650
(dp4677
sI4651
(dp4678
sI4652
(dp4679
sI4653
(dp4680
sI4654
(dp4681
sI4655
(dp4682
sI4656
(dp4683
sI4657
(dp4684
sI4658
(dp4685
sI4659
(dp4686
sI4660
(dp4687
sI4661
(dp4688
sI4662
(dp4689
sI4663
(dp4690
sI4664
(dp4691
sI4665
(dp4692
sI4666
(dp4693
sI4667
(dp4694
sI4668
(dp4695
sI4669
(dp4696
sI4670
(dp4697
sI4671
(dp4698
sI4672
(dp4699
sI4673
(dp4700
sI4674
(dp4701
sI4675
(dp4702
sI4676
(dp4703
sI4677
(dp4704
sI4678
(dp4705
sI4679
(dp4706
sI4680
(dp4707
sI4681
(dp4708
sI4682
(dp4709
sI4683
(dp4710
sI4684
(dp4711
sI4685
(dp4712
sI4686
(dp4713
sI4687
(dp4714
sI4688
(dp4715
sI4689
(dp4716
sI4690
(dp4717
sI4691
(dp4718
sI4692
(dp4719
sI4693
(dp4720
sI4694
(dp4721
sI4695
(dp4722
sI4696
(dp4723
sI4697
(dp4724
sI4698
(dp4725
sI4699
(dp4726
sI4700
(dp4727
sI4701
(dp4728
sI4702
(dp4729
sI4703
(dp4730
sI4704
(dp4731
sI4705
(dp4732
sI4706
(dp4733
sI4707
(dp4734
sI4708
(dp4735
sI4709
(dp4736
sI4710
(dp4737
sI4711
(dp4738
sI4712
(dp4739
sI4713
(dp4740
sI4714
(dp4741
sI4715
(dp4742
sI4716
(dp4743
sI4717
(dp4744
sI4718
(dp4745
sI4719
(dp4746
sI4720
(dp4747
sI4721
(dp4748
sI4722
(dp4749
sI4723
(dp4750
sI4724
(dp4751
sI4725
(dp4752
sI4726
(dp4753
sI4727
(dp4754
sI4728
(dp4755
sI4729
(dp4756
sI4730
(dp4757
sI4731
(dp4758
sI4732
(dp4759
sI4733
(dp4760
sI4734
(dp4761
sI4735
(dp4762
sI4736
(dp4763
sI4737
(dp4764
sI4738
(dp4765
sI4739
(dp4766
sI4740
(dp4767
sI4741
(dp4768
sI4742
(dp4769
sI4743
(dp4770
sI4744
(dp4771
sI4745
(dp4772
sI4746
(dp4773
sI4747
(dp4774
sI4748
(dp4775
sI4749
(dp4776
sI4750
(dp4777
sI4751
(dp4778
sI4752
(dp4779
sI4753
(dp4780
sI4754
(dp4781
sI4755
(dp4782
sI4756
(dp4783
sI4757
(dp4784
sI4758
(dp4785
sI4759
(dp4786
sI4760
(dp4787
sI4761
(dp4788
sI4762
(dp4789
sI4763
(dp4790
sI4764
(dp4791
sI4765
(dp4792
sI4766
(dp4793
sI4767
(dp4794
sI4768
(dp4795
sI4769
(dp4796
sI4770
(dp4797
sI4771
(dp4798
sI4772
(dp4799
sI4773
(dp4800
sI4774
(dp4801
sI4775
(dp4802
sI4776
(dp4803
sI4777
(dp4804
sI4778
(dp4805
sI4779
(dp4806
sI4780
(dp4807
sI4781
(dp4808
sI4782
(dp4809
sI4783
(dp4810
sI4784
(dp4811
sI4785
(dp4812
sI4786
(dp4813
sI4787
(dp4814
sI4788
(dp4815
sI4789
(dp4816
sI4790
(dp4817
sI4791
(dp4818
sI4792
(dp4819
sI4793
(dp4820
sI4794
(dp4821
sI4795
(dp4822
sI4796
(dp4823
sI4797
(dp4824
sI4798
(dp4825
sI4799
(dp4826
sI4800
(dp4827
sI4801
(dp4828
sI4802
(dp4829
sI4803
(dp4830
sI4804
(dp4831
sI4805
(dp4832
sI4806
(dp4833
sI4807
(dp4834
sI4808
(dp4835
sI4809
(dp4836
sI4810
(dp4837
sI4811
(dp4838
sI4812
(dp4839
sI4813
(dp4840
sI4814
(dp4841
sI4815
(dp4842
sI4816
(dp4843
sI4817
(dp4844
sI4818
(dp4845
sI4819
(dp4846
sI4820
(dp4847
sI4821
(dp4848
sI4822
(dp4849
sI4823
(dp4850
sI4824
(dp4851
sI4825
(dp4852
sI4826
(dp4853
sI4827
(dp4854
sI4828
(dp4855
sI4829
(dp4856
sI4830
(dp4857
sI4831
(dp4858
sI4832
(dp4859
sI4833
(dp4860
sI4834
(dp4861
sI4835
(dp4862
sI4836
(dp4863
sI4837
(dp4864
sI4838
(dp4865
sI4839
(dp4866
sI4840
(dp4867
sI4841
(dp4868
sI4842
(dp4869
sI4843
(dp4870
sI4844
(dp4871
sI4845
(dp4872
sI4846
(dp4873
sI4847
(dp4874
sI4848
(dp4875
sI4849
(dp4876
sI4850
(dp4877
sI4851
(dp4878
sI4852
(dp4879
sI4853
(dp4880
sI4854
(dp4881
sI4855
(dp4882
sI4856
(dp4883
sI4857
(dp4884
sI4858
(dp4885
sI4859
(dp4886
sI4860
(dp4887
sI4861
(dp4888
sI4862
(dp4889
sI4863
(dp4890
sI4864
(dp4891
sI4865
(dp4892
sI4866
(dp4893
sI4867
(dp4894
sI4868
(dp4895
sI4869
(dp4896
sI4870
(dp4897
sI4871
(dp4898
sI4872
(dp4899
sI4873
(dp4900
sI4874
(dp4901
sI4875
(dp4902
sI4876
(dp4903
sI4877
(dp4904
sI4878
(dp4905
sI4879
(dp4906
sI4880
(dp4907
sI4881
(dp4908
sI4882
(dp4909
sI4883
(dp4910
sI4884
(dp4911
sI4885
(dp4912
sI4886
(dp4913
sI4887
(dp4914
sI4888
(dp4915
sI4889
(dp4916
sI4890
(dp4917
sI4891
(dp4918
sI4892
(dp4919
sI4893
(dp4920
sI4894
(dp4921
sI4895
(dp4922
sI4896
(dp4923
sI4897
(dp4924
sI4898
(dp4925
sI4899
(dp4926
sI4900
(dp4927
sI4901
(dp4928
sI4902
(dp4929
sI4903
(dp4930
sI4904
(dp4931
sI4905
(dp4932
sI4906
(dp4933
sI4907
(dp4934
sI4908
(dp4935
sI4909
(dp4936
sI4910
(dp4937
sI4911
(dp4938
sI4912
(dp4939
sI4913
(dp4940
sI4914
(dp4941
sI4915
(dp4942
sI4916
(dp4943
sI4917
(dp4944
sI4918
(dp4945
sI4919
(dp4946
sI4920
(dp4947
sI4921
(dp4948
sI4922
(dp4949
sI4923
(dp4950
sI4924
(dp4951
sI4925
(dp4952
sI4926
(dp4953
sI4927
(dp4954
sI4928
(dp4955
sI4929
(dp4956
sI4930
(dp4957
sI4931
(dp4958
sI4932
(dp4959
sI4933
(dp4960
sI4934
(dp4961
sI4935
(dp4962
sI4936
(dp4963
sI4937
(dp4964
sI4938
(dp4965
sI4939
(dp4966
sI4940
(dp4967
sI4941
(dp4968
sI4942
(dp4969
sI4943
(dp4970
sI4944
(dp4971
sI4945
(dp4972
sI4946
(dp4973
sI4947
(dp4974
sI4948
(dp4975
sI4949
(dp4976
sI4950
(dp4977
sI4951
(dp4978
sI4952
(dp4979
sI4953
(dp4980
sI4954
(dp4981
sI4955
(dp4982
sI4956
(dp4983
sI4957
(dp4984
sI4958
(dp4985
sI4959
(dp4986
sI4960
(dp4987
sI4961
(dp4988
sI4962
(dp4989
sI4963
(dp4990
sI4964
(dp4991
sI4965
(dp4992
sI4966
(dp4993
sI4967
(dp4994
sI4968
(dp4995
sI4969
(dp4996
sI4970
(dp4997
sI4971
(dp4998
sI4972
(dp4999
sI4973
(dp5000
sI4974
(dp5001
sI4975
(dp5002
sI4976
(dp5003
sI4977
(dp5004
sI4978
(dp5005
sI4979
(dp5006
sI4980
(dp5007
sI4981
(dp5008
sI4982
(dp5009
sI4983
(dp5010
sI4984
(dp5011
sI4985
(dp5012
sI4986
(dp5013
sI4987
(dp5014
sI4988
(dp5015
sI4989
(dp5016
sI4990
(dp5017
sI4991
(dp5018
sI4992
(dp5019
sI4993
(dp5020
sI4994
(dp5021
sI4995
(dp5022
sI4996
(dp5023
sI4997
(dp5024
sI4998
(dp5025
sI4999
(dp5026
sI5000
(dp5027
S'train_reconstruct_error'
p5028
g5
(g6
(I0
tS'b'
tRp5029
(I1
(tg9
I00
S'\xbb\x8e\x83B'
tbssI5001
(dp5030
sI5002
(dp5031
sI5003
(dp5032
sI5004
(dp5033
sI5005
(dp5034
sI5006
(dp5035
sI5007
(dp5036
sI5008
(dp5037
sI5009
(dp5038
sI5010
(dp5039
sI5011
(dp5040
sI5012
(dp5041
sI5013
(dp5042
sI5014
(dp5043
sI5015
(dp5044
sI5016
(dp5045
sI5017
(dp5046
sI5018
(dp5047
sI5019
(dp5048
sI5020
(dp5049
sI5021
(dp5050
sI5022
(dp5051
sI5023
(dp5052
sI5024
(dp5053
sI5025
(dp5054
sI5026
(dp5055
sI5027
(dp5056
sI5028
(dp5057
sI5029
(dp5058
sI5030
(dp5059
sI5031
(dp5060
sI5032
(dp5061
sI5033
(dp5062
sI5034
(dp5063
sI5035
(dp5064
sI5036
(dp5065
sI5037
(dp5066
sI5038
(dp5067
sI5039
(dp5068
sI5040
(dp5069
sI5041
(dp5070
sI5042
(dp5071
sI5043
(dp5072
sI5044
(dp5073
sI5045
(dp5074
sI5046
(dp5075
sI5047
(dp5076
sI5048
(dp5077
sI5049
(dp5078
sI5050
(dp5079
sI5051
(dp5080
sI5052
(dp5081
sI5053
(dp5082
sI5054
(dp5083
sI5055
(dp5084
sI5056
(dp5085
sI5057
(dp5086
sI5058
(dp5087
sI5059
(dp5088
sI5060
(dp5089
sI5061
(dp5090
sI5062
(dp5091
sI5063
(dp5092
sI5064
(dp5093
sI5065
(dp5094
sI5066
(dp5095
sI5067
(dp5096
sI5068
(dp5097
sI5069
(dp5098
sI5070
(dp5099
sI5071
(dp5100
sI5072
(dp5101
sI5073
(dp5102
sI5074
(dp5103
sI5075
(dp5104
sI5076
(dp5105
sI5077
(dp5106
sI5078
(dp5107
sI5079
(dp5108
sI5080
(dp5109
sI5081
(dp5110
sI5082
(dp5111
sI5083
(dp5112
sI5084
(dp5113
sI5085
(dp5114
sI5086
(dp5115
sI5087
(dp5116
sI5088
(dp5117
sI5089
(dp5118
sI5090
(dp5119
sI5091
(dp5120
sI5092
(dp5121
sI5093
(dp5122
sI5094
(dp5123
sI5095
(dp5124
sI5096
(dp5125
sI5097
(dp5126
sI5098
(dp5127
sI5099
(dp5128
sI5100
(dp5129
sI5101
(dp5130
sI5102
(dp5131
sI5103
(dp5132
sI5104
(dp5133
sI5105
(dp5134
sI5106
(dp5135
sI5107
(dp5136
sI5108
(dp5137
sI5109
(dp5138
sI5110
(dp5139
sI5111
(dp5140
sI5112
(dp5141
sI5113
(dp5142
sI5114
(dp5143
sI5115
(dp5144
sI5116
(dp5145
sI5117
(dp5146
sI5118
(dp5147
sI5119
(dp5148
sI5120
(dp5149
sI5121
(dp5150
sI5122
(dp5151
sI5123
(dp5152
sI5124
(dp5153
sI5125
(dp5154
sI5126
(dp5155
sI5127
(dp5156
sI5128
(dp5157
sI5129
(dp5158
sI5130
(dp5159
sI5131
(dp5160
sI5132
(dp5161
sI5133
(dp5162
sI5134
(dp5163
sI5135
(dp5164
sI5136
(dp5165
sI5137
(dp5166
sI5138
(dp5167
sI5139
(dp5168
sI5140
(dp5169
sI5141
(dp5170
sI5142
(dp5171
sI5143
(dp5172
sI5144
(dp5173
sI5145
(dp5174
sI5146
(dp5175
sI5147
(dp5176
sI5148
(dp5177
sI5149
(dp5178
sI5150
(dp5179
sI5151
(dp5180
sI5152
(dp5181
sI5153
(dp5182
sI5154
(dp5183
sI5155
(dp5184
sI5156
(dp5185
sI5157
(dp5186
sI5158
(dp5187
sI5159
(dp5188
sI5160
(dp5189
sI5161
(dp5190
sI5162
(dp5191
sI5163
(dp5192
sI5164
(dp5193
sI5165
(dp5194
sI5166
(dp5195
sI5167
(dp5196
sI5168
(dp5197
sI5169
(dp5198
sI5170
(dp5199
sI5171
(dp5200
sI5172
(dp5201
sI5173
(dp5202
sI5174
(dp5203
sI5175
(dp5204
sI5176
(dp5205
sI5177
(dp5206
sI5178
(dp5207
sI5179
(dp5208
sI5180
(dp5209
sI5181
(dp5210
sI5182
(dp5211
sI5183
(dp5212
sI5184
(dp5213
sI5185
(dp5214
sI5186
(dp5215
sI5187
(dp5216
sI5188
(dp5217
sI5189
(dp5218
sI5190
(dp5219
sI5191
(dp5220
sI5192
(dp5221
sI5193
(dp5222
sI5194
(dp5223
sI5195
(dp5224
sI5196
(dp5225
sI5197
(dp5226
sI5198
(dp5227
sI5199
(dp5228
sI5200
(dp5229
sI5201
(dp5230
sI5202
(dp5231
sI5203
(dp5232
sI5204
(dp5233
sI5205
(dp5234
sI5206
(dp5235
sI5207
(dp5236
sI5208
(dp5237
sI5209
(dp5238
sI5210
(dp5239
sI5211
(dp5240
sI5212
(dp5241
sI5213
(dp5242
sI5214
(dp5243
sI5215
(dp5244
sI5216
(dp5245
sI5217
(dp5246
sI5218
(dp5247
sI5219
(dp5248
sI5220
(dp5249
sI5221
(dp5250
sI5222
(dp5251
sI5223
(dp5252
sI5224
(dp5253
sI5225
(dp5254
sI5226
(dp5255
sI5227
(dp5256
sI5228
(dp5257
sI5229
(dp5258
sI5230
(dp5259
sI5231
(dp5260
sI5232
(dp5261
sI5233
(dp5262
sI5234
(dp5263
sI5235
(dp5264
sI5236
(dp5265
sI5237
(dp5266
sI5238
(dp5267
sI5239
(dp5268
sI5240
(dp5269
sI5241
(dp5270
sI5242
(dp5271
sI5243
(dp5272
sI5244
(dp5273
sI5245
(dp5274
sI5246
(dp5275
sI5247
(dp5276
sI5248
(dp5277
sI5249
(dp5278
sI5250
(dp5279
sI5251
(dp5280
sI5252
(dp5281
sI5253
(dp5282
sI5254
(dp5283
sI5255
(dp5284
sI5256
(dp5285
sI5257
(dp5286
sI5258
(dp5287
sI5259
(dp5288
sI5260
(dp5289
sI5261
(dp5290
sI5262
(dp5291
sI5263
(dp5292
sI5264
(dp5293
sI5265
(dp5294
sI5266
(dp5295
sI5267
(dp5296
sI5268
(dp5297
sI5269
(dp5298
sI5270
(dp5299
sI5271
(dp5300
sI5272
(dp5301
sI5273
(dp5302
sI5274
(dp5303
sI5275
(dp5304
sI5276
(dp5305
sI5277
(dp5306
sI5278
(dp5307
sI5279
(dp5308
sI5280
(dp5309
sI5281
(dp5310
sI5282
(dp5311
sI5283
(dp5312
sI5284
(dp5313
sI5285
(dp5314
sI5286
(dp5315
sI5287
(dp5316
sI5288
(dp5317
sI5289
(dp5318
sI5290
(dp5319
sI5291
(dp5320
sI5292
(dp5321
sI5293
(dp5322
sI5294
(dp5323
sI5295
(dp5324
sI5296
(dp5325
sI5297
(dp5326
sI5298
(dp5327
sI5299
(dp5328
sI5300
(dp5329
sI5301
(dp5330
sI5302
(dp5331
sI5303
(dp5332
sI5304
(dp5333
sI5305
(dp5334
sI5306
(dp5335
sI5307
(dp5336
sI5308
(dp5337
sI5309
(dp5338
sI5310
(dp5339
sI5311
(dp5340
sI5312
(dp5341
sI5313
(dp5342
sI5314
(dp5343
sI5315
(dp5344
sI5316
(dp5345
sI5317
(dp5346
sI5318
(dp5347
sI5319
(dp5348
sI5320
(dp5349
sI5321
(dp5350
sI5322
(dp5351
sI5323
(dp5352
sI5324
(dp5353
sI5325
(dp5354
sI5326
(dp5355
sI5327
(dp5356
sI5328
(dp5357
sI5329
(dp5358
sI5330
(dp5359
sI5331
(dp5360
sI5332
(dp5361
sI5333
(dp5362
sI5334
(dp5363
sI5335
(dp5364
sI5336
(dp5365
sI5337
(dp5366
sI5338
(dp5367
sI5339
(dp5368
sI5340
(dp5369
sI5341
(dp5370
sI5342
(dp5371
sI5343
(dp5372
sI5344
(dp5373
sI5345
(dp5374
sI5346
(dp5375
sI5347
(dp5376
sI5348
(dp5377
sI5349
(dp5378
sI5350
(dp5379
sI5351
(dp5380
sI5352
(dp5381
sI5353
(dp5382
sI5354
(dp5383
sI5355
(dp5384
sI5356
(dp5385
sI5357
(dp5386
sI5358
(dp5387
sI5359
(dp5388
sI5360
(dp5389
sI5361
(dp5390
sI5362
(dp5391
sI5363
(dp5392
sI5364
(dp5393
sI5365
(dp5394
sI5366
(dp5395
sI5367
(dp5396
sI5368
(dp5397
sI5369
(dp5398
sI5370
(dp5399
sI5371
(dp5400
sI5372
(dp5401
sI5373
(dp5402
sI5374
(dp5403
sI5375
(dp5404
sI5376
(dp5405
sI5377
(dp5406
sI5378
(dp5407
sI5379
(dp5408
sI5380
(dp5409
sI5381
(dp5410
sI5382
(dp5411
sI5383
(dp5412
sI5384
(dp5413
sI5385
(dp5414
sI5386
(dp5415
sI5387
(dp5416
sI5388
(dp5417
sI5389
(dp5418
sI5390
(dp5419
sI5391
(dp5420
sI5392
(dp5421
sI5393
(dp5422
sI5394
(dp5423
sI5395
(dp5424
sI5396
(dp5425
sI5397
(dp5426
sI5398
(dp5427
sI5399
(dp5428
sI5400
(dp5429
sI5401
(dp5430
sI5402
(dp5431
sI5403
(dp5432
sI5404
(dp5433
sI5405
(dp5434
sI5406
(dp5435
sI5407
(dp5436
sI5408
(dp5437
sI5409
(dp5438
sI5410
(dp5439
sI5411
(dp5440
sI5412
(dp5441
sI5413
(dp5442
sI5414
(dp5443
sI5415
(dp5444
sI5416
(dp5445
sI5417
(dp5446
sI5418
(dp5447
sI5419
(dp5448
sI5420
(dp5449
sI5421
(dp5450
sI5422
(dp5451
sI5423
(dp5452
sI5424
(dp5453
sI5425
(dp5454
sI5426
(dp5455
sI5427
(dp5456
sI5428
(dp5457
sI5429
(dp5458
sI5430
(dp5459
sI5431
(dp5460
sI5432
(dp5461
sI5433
(dp5462
sI5434
(dp5463
sI5435
(dp5464
sI5436
(dp5465
sI5437
(dp5466
sI5438
(dp5467
sI5439
(dp5468
sI5440
(dp5469
sI5441
(dp5470
sI5442
(dp5471
sI5443
(dp5472
sI5444
(dp5473
sI5445
(dp5474
sI5446
(dp5475
sI5447
(dp5476
sI5448
(dp5477
sI5449
(dp5478
sI5450
(dp5479
sI5451
(dp5480
sI5452
(dp5481
sI5453
(dp5482
sI5454
(dp5483
sI5455
(dp5484
sI5456
(dp5485
sI5457
(dp5486
sI5458
(dp5487
sI5459
(dp5488
sI5460
(dp5489
sI5461
(dp5490
sI5462
(dp5491
sI5463
(dp5492
sI5464
(dp5493
sI5465
(dp5494
sI5466
(dp5495
sI5467
(dp5496
sI5468
(dp5497
sI5469
(dp5498
sI5470
(dp5499
sI5471
(dp5500
sI5472
(dp5501
sI5473
(dp5502
sI5474
(dp5503
sI5475
(dp5504
sI5476
(dp5505
sI5477
(dp5506
sI5478
(dp5507
sI5479
(dp5508
sI5480
(dp5509
sI5481
(dp5510
sI5482
(dp5511
sI5483
(dp5512
sI5484
(dp5513
sI5485
(dp5514
sI5486
(dp5515
sI5487
(dp5516
sI5488
(dp5517
sI5489
(dp5518
sI5490
(dp5519
sI5491
(dp5520
sI5492
(dp5521
sI5493
(dp5522
sI5494
(dp5523
sI5495
(dp5524
sI5496
(dp5525
sI5497
(dp5526
sI5498
(dp5527
sI5499
(dp5528
sI5500
(dp5529
S'train_reconstruct_error'
p5530
g5
(g6
(I0
tS'b'
tRp5531
(I1
(tg9
I00
S'4\x04\x83B'
tbssI5501
(dp5532
sI5502
(dp5533
sI5503
(dp5534
sI5504
(dp5535
sI5505
(dp5536
sI5506
(dp5537
sI5507
(dp5538
sI5508
(dp5539
sI5509
(dp5540
sI5510
(dp5541
sI5511
(dp5542
sI5512
(dp5543
sI5513
(dp5544
sI5514
(dp5545
sI5515
(dp5546
sI5516
(dp5547
sI5517
(dp5548
sI5518
(dp5549
sI5519
(dp5550
sI5520
(dp5551
sI5521
(dp5552
sI5522
(dp5553
sI5523
(dp5554
sI5524
(dp5555
sI5525
(dp5556
sI5526
(dp5557
sI5527
(dp5558
sI5528
(dp5559
sI5529
(dp5560
sI5530
(dp5561
sI5531
(dp5562
sI5532
(dp5563
sI5533
(dp5564
sI5534
(dp5565
sI5535
(dp5566
sI5536
(dp5567
sI5537
(dp5568
sI5538
(dp5569
sI5539
(dp5570
sI5540
(dp5571
sI5541
(dp5572
sI5542
(dp5573
sI5543
(dp5574
sI5544
(dp5575
sI5545
(dp5576
sI5546
(dp5577
sI5547
(dp5578
sI5548
(dp5579
sI5549
(dp5580
sI5550
(dp5581
sI5551
(dp5582
sI5552
(dp5583
sI5553
(dp5584
sI5554
(dp5585
sI5555
(dp5586
sI5556
(dp5587
sI5557
(dp5588
sI5558
(dp5589
sI5559
(dp5590
sI5560
(dp5591
sI5561
(dp5592
sI5562
(dp5593
sI5563
(dp5594
sI5564
(dp5595
sI5565
(dp5596
sI5566
(dp5597
sI5567
(dp5598
sI5568
(dp5599
sI5569
(dp5600
sI5570
(dp5601
sI5571
(dp5602
sI5572
(dp5603
sI5573
(dp5604
sI5574
(dp5605
sI5575
(dp5606
sI5576
(dp5607
sI5577
(dp5608
sI5578
(dp5609
sI5579
(dp5610
sI5580
(dp5611
sI5581
(dp5612
sI5582
(dp5613
sI5583
(dp5614
sI5584
(dp5615
sI5585
(dp5616
sI5586
(dp5617
sI5587
(dp5618
sI5588
(dp5619
sI5589
(dp5620
sI5590
(dp5621
sI5591
(dp5622
sI5592
(dp5623
sI5593
(dp5624
sI5594
(dp5625
sI5595
(dp5626
sI5596
(dp5627
sI5597
(dp5628
sI5598
(dp5629
sI5599
(dp5630
sI5600
(dp5631
sI5601
(dp5632
sI5602
(dp5633
sI5603
(dp5634
sI5604
(dp5635
sI5605
(dp5636
sI5606
(dp5637
sI5607
(dp5638
sI5608
(dp5639
sI5609
(dp5640
sI5610
(dp5641
sI5611
(dp5642
sI5612
(dp5643
sI5613
(dp5644
sI5614
(dp5645
sI5615
(dp5646
sI5616
(dp5647
sI5617
(dp5648
sI5618
(dp5649
sI5619
(dp5650
sI5620
(dp5651
sI5621
(dp5652
sI5622
(dp5653
sI5623
(dp5654
sI5624
(dp5655
sI5625
(dp5656
sI5626
(dp5657
sI5627
(dp5658
sI5628
(dp5659
sI5629
(dp5660
sI5630
(dp5661
sI5631
(dp5662
sI5632
(dp5663
sI5633
(dp5664
sI5634
(dp5665
sI5635
(dp5666
sI5636
(dp5667
sI5637
(dp5668
sI5638
(dp5669
sI5639
(dp5670
sI5640
(dp5671
sI5641
(dp5672
sI5642
(dp5673
sI5643
(dp5674
sI5644
(dp5675
sI5645
(dp5676
sI5646
(dp5677
sI5647
(dp5678
sI5648
(dp5679
sI5649
(dp5680
sI5650
(dp5681
sI5651
(dp5682
sI5652
(dp5683
sI5653
(dp5684
sI5654
(dp5685
sI5655
(dp5686
sI5656
(dp5687
sI5657
(dp5688
sI5658
(dp5689
sI5659
(dp5690
sI5660
(dp5691
sI5661
(dp5692
sI5662
(dp5693
sI5663
(dp5694
sI5664
(dp5695
sI5665
(dp5696
sI5666
(dp5697
sI5667
(dp5698
sI5668
(dp5699
sI5669
(dp5700
sI5670
(dp5701
sI5671
(dp5702
sI5672
(dp5703
sI5673
(dp5704
sI5674
(dp5705
sI5675
(dp5706
sI5676
(dp5707
sI5677
(dp5708
sI5678
(dp5709
sI5679
(dp5710
sI5680
(dp5711
sI5681
(dp5712
sI5682
(dp5713
sI5683
(dp5714
sI5684
(dp5715
sI5685
(dp5716
sI5686
(dp5717
sI5687
(dp5718
sI5688
(dp5719
sI5689
(dp5720
sI5690
(dp5721
sI5691
(dp5722
sI5692
(dp5723
sI5693
(dp5724
sI5694
(dp5725
sI5695
(dp5726
sI5696
(dp5727
sI5697
(dp5728
sI5698
(dp5729
sI5699
(dp5730
sI5700
(dp5731
sI5701
(dp5732
sI5702
(dp5733
sI5703
(dp5734
sI5704
(dp5735
sI5705
(dp5736
sI5706
(dp5737
sI5707
(dp5738
sI5708
(dp5739
sI5709
(dp5740
sI5710
(dp5741
sI5711
(dp5742
sI5712
(dp5743
sI5713
(dp5744
sI5714
(dp5745
sI5715
(dp5746
sI5716
(dp5747
sI5717
(dp5748
sI5718
(dp5749
sI5719
(dp5750
sI5720
(dp5751
sI5721
(dp5752
sI5722
(dp5753
sI5723
(dp5754
sI5724
(dp5755
sI5725
(dp5756
sI5726
(dp5757
sI5727
(dp5758
sI5728
(dp5759
sI5729
(dp5760
sI5730
(dp5761
sI5731
(dp5762
sI5732
(dp5763
sI5733
(dp5764
sI5734
(dp5765
sI5735
(dp5766
sI5736
(dp5767
sI5737
(dp5768
sI5738
(dp5769
sI5739
(dp5770
sI5740
(dp5771
sI5741
(dp5772
sI5742
(dp5773
sI5743
(dp5774
sI5744
(dp5775
sI5745
(dp5776
sI5746
(dp5777
sI5747
(dp5778
sI5748
(dp5779
sI5749
(dp5780
sI5750
(dp5781
sI5751
(dp5782
sI5752
(dp5783
sI5753
(dp5784
sI5754
(dp5785
sI5755
(dp5786
sI5756
(dp5787
sI5757
(dp5788
sI5758
(dp5789
sI5759
(dp5790
sI5760
(dp5791
sI5761
(dp5792
sI5762
(dp5793
sI5763
(dp5794
sI5764
(dp5795
sI5765
(dp5796
sI5766
(dp5797
sI5767
(dp5798
sI5768
(dp5799
sI5769
(dp5800
sI5770
(dp5801
sI5771
(dp5802
sI5772
(dp5803
sI5773
(dp5804
sI5774
(dp5805
sI5775
(dp5806
sI5776
(dp5807
sI5777
(dp5808
sI5778
(dp5809
sI5779
(dp5810
sI5780
(dp5811
sI5781
(dp5812
sI5782
(dp5813
sI5783
(dp5814
sI5784
(dp5815
sI5785
(dp5816
sI5786
(dp5817
sI5787
(dp5818
sI5788
(dp5819
sI5789
(dp5820
sI5790
(dp5821
sI5791
(dp5822
sI5792
(dp5823
sI5793
(dp5824
sI5794
(dp5825
sI5795
(dp5826
sI5796
(dp5827
sI5797
(dp5828
sI5798
(dp5829
sI5799
(dp5830
sI5800
(dp5831
sI5801
(dp5832
sI5802
(dp5833
sI5803
(dp5834
sI5804
(dp5835
sI5805
(dp5836
sI5806
(dp5837
sI5807
(dp5838
sI5808
(dp5839
sI5809
(dp5840
sI5810
(dp5841
sI5811
(dp5842
sI5812
(dp5843
sI5813
(dp5844
sI5814
(dp5845
sI5815
(dp5846
sI5816
(dp5847
sI5817
(dp5848
sI5818
(dp5849
sI5819
(dp5850
sI5820
(dp5851
sI5821
(dp5852
sI5822
(dp5853
sI5823
(dp5854
sI5824
(dp5855
sI5825
(dp5856
sI5826
(dp5857
sI5827
(dp5858
sI5828
(dp5859
sI5829
(dp5860
sI5830
(dp5861
sI5831
(dp5862
sI5832
(dp5863
sI5833
(dp5864
sI5834
(dp5865
sI5835
(dp5866
sI5836
(dp5867
sI5837
(dp5868
sI5838
(dp5869
sI5839
(dp5870
sI5840
(dp5871
sI5841
(dp5872
sI5842
(dp5873
sI5843
(dp5874
sI5844
(dp5875
sI5845
(dp5876
sI5846
(dp5877
sI5847
(dp5878
sI5848
(dp5879
sI5849
(dp5880
sI5850
(dp5881
sI5851
(dp5882
sI5852
(dp5883
sI5853
(dp5884
sI5854
(dp5885
sI5855
(dp5886
sI5856
(dp5887
sI5857
(dp5888
sI5858
(dp5889
sI5859
(dp5890
sI5860
(dp5891
sI5861
(dp5892
sI5862
(dp5893
sI5863
(dp5894
sI5864
(dp5895
sI5865
(dp5896
sI5866
(dp5897
sI5867
(dp5898
sI5868
(dp5899
sI5869
(dp5900
sI5870
(dp5901
sI5871
(dp5902
sI5872
(dp5903
sI5873
(dp5904
sI5874
(dp5905
sI5875
(dp5906
sI5876
(dp5907
sI5877
(dp5908
sI5878
(dp5909
sI5879
(dp5910
sI5880
(dp5911
sI5881
(dp5912
sI5882
(dp5913
sI5883
(dp5914
sI5884
(dp5915
sI5885
(dp5916
sI5886
(dp5917
sI5887
(dp5918
sI5888
(dp5919
sI5889
(dp5920
sI5890
(dp5921
sI5891
(dp5922
sI5892
(dp5923
sI5893
(dp5924
sI5894
(dp5925
sI5895
(dp5926
sI5896
(dp5927
sI5897
(dp5928
sI5898
(dp5929
sI5899
(dp5930
sI5900
(dp5931
sI5901
(dp5932
sI5902
(dp5933
sI5903
(dp5934
sI5904
(dp5935
sI5905
(dp5936
sI5906
(dp5937
sI5907
(dp5938
sI5908
(dp5939
sI5909
(dp5940
sI5910
(dp5941
sI5911
(dp5942
sI5912
(dp5943
sI5913
(dp5944
sI5914
(dp5945
sI5915
(dp5946
sI5916
(dp5947
sI5917
(dp5948
sI5918
(dp5949
sI5919
(dp5950
sI5920
(dp5951
sI5921
(dp5952
sI5922
(dp5953
sI5923
(dp5954
sI5924
(dp5955
sI5925
(dp5956
sI5926
(dp5957
sI5927
(dp5958
sI5928
(dp5959
sI5929
(dp5960
sI5930
(dp5961
sI5931
(dp5962
sI5932
(dp5963
sI5933
(dp5964
sI5934
(dp5965
sI5935
(dp5966
sI5936
(dp5967
sI5937
(dp5968
sI5938
(dp5969
sI5939
(dp5970
sI5940
(dp5971
sI5941
(dp5972
sI5942
(dp5973
sI5943
(dp5974
sI5944
(dp5975
sI5945
(dp5976
sI5946
(dp5977
sI5947
(dp5978
sI5948
(dp5979
sI5949
(dp5980
sI5950
(dp5981
sI5951
(dp5982
sI5952
(dp5983
sI5953
(dp5984
sI5954
(dp5985
sI5955
(dp5986
sI5956
(dp5987
sI5957
(dp5988
sI5958
(dp5989
sI5959
(dp5990
sI5960
(dp5991
sI5961
(dp5992
sI5962
(dp5993
sI5963
(dp5994
sI5964
(dp5995
sI5965
(dp5996
sI5966
(dp5997
sI5967
(dp5998
sI5968
(dp5999
sI5969
(dp6000
sI5970
(dp6001
sI5971
(dp6002
sI5972
(dp6003
sI5973
(dp6004
sI5974
(dp6005
sI5975
(dp6006
sI5976
(dp6007
sI5977
(dp6008
sI5978
(dp6009
sI5979
(dp6010
sI5980
(dp6011
sI5981
(dp6012
sI5982
(dp6013
sI5983
(dp6014
sI5984
(dp6015
sI5985
(dp6016
sI5986
(dp6017
sI5987
(dp6018
sI5988
(dp6019
sI5989
(dp6020
sI5990
(dp6021
sI5991
(dp6022
sI5992
(dp6023
sI5993
(dp6024
sI5994
(dp6025
sI5995
(dp6026
sI5996
(dp6027
sI5997
(dp6028
sI5998
(dp6029
sI5999
(dp6030
sI6000
(dp6031
S'train_reconstruct_error'
p6032
g5
(g6
(I0
tS'b'
tRp6033
(I1
(tg9
I00
S'"\xa0qB'
tbssI6001
(dp6034
sI6002
(dp6035
sI6003
(dp6036
sI6004
(dp6037
sI6005
(dp6038
sI6006
(dp6039
sI6007
(dp6040
sI6008
(dp6041
sI6009
(dp6042
sI6010
(dp6043
sI6011
(dp6044
sI6012
(dp6045
sI6013
(dp6046
sI6014
(dp6047
sI6015
(dp6048
sI6016
(dp6049
sI6017
(dp6050
sI6018
(dp6051
sI6019
(dp6052
sI6020
(dp6053
sI6021
(dp6054
sI6022
(dp6055
sI6023
(dp6056
sI6024
(dp6057
sI6025
(dp6058
sI6026
(dp6059
sI6027
(dp6060
sI6028
(dp6061
sI6029
(dp6062
sI6030
(dp6063
sI6031
(dp6064
sI6032
(dp6065
sI6033
(dp6066
sI6034
(dp6067
sI6035
(dp6068
sI6036
(dp6069
sI6037
(dp6070
sI6038
(dp6071
sI6039
(dp6072
sI6040
(dp6073
sI6041
(dp6074
sI6042
(dp6075
sI6043
(dp6076
sI6044
(dp6077
sI6045
(dp6078
sI6046
(dp6079
sI6047
(dp6080
sI6048
(dp6081
sI6049
(dp6082
sI6050
(dp6083
sI6051
(dp6084
sI6052
(dp6085
sI6053
(dp6086
sI6054
(dp6087
sI6055
(dp6088
sI6056
(dp6089
sI6057
(dp6090
sI6058
(dp6091
sI6059
(dp6092
sI6060
(dp6093
sI6061
(dp6094
sI6062
(dp6095
sI6063
(dp6096
sI6064
(dp6097
sI6065
(dp6098
sI6066
(dp6099
sI6067
(dp6100
sI6068
(dp6101
sI6069
(dp6102
sI6070
(dp6103
sI6071
(dp6104
sI6072
(dp6105
sI6073
(dp6106
sI6074
(dp6107
sI6075
(dp6108
sI6076
(dp6109
sI6077
(dp6110
sI6078
(dp6111
sI6079
(dp6112
sI6080
(dp6113
sI6081
(dp6114
sI6082
(dp6115
sI6083
(dp6116
sI6084
(dp6117
sI6085
(dp6118
sI6086
(dp6119
sI6087
(dp6120
sI6088
(dp6121
sI6089
(dp6122
sI6090
(dp6123
sI6091
(dp6124
sI6092
(dp6125
sI6093
(dp6126
sI6094
(dp6127
sI6095
(dp6128
sI6096
(dp6129
sI6097
(dp6130
sI6098
(dp6131
sI6099
(dp6132
sI6100
(dp6133
sI6101
(dp6134
sI6102
(dp6135
sI6103
(dp6136
sI6104
(dp6137
sI6105
(dp6138
sI6106
(dp6139
sI6107
(dp6140
sI6108
(dp6141
sI6109
(dp6142
sI6110
(dp6143
sI6111
(dp6144
sI6112
(dp6145
sI6113
(dp6146
sI6114
(dp6147
sI6115
(dp6148
sI6116
(dp6149
sI6117
(dp6150
sI6118
(dp6151
sI6119
(dp6152
sI6120
(dp6153
sI6121
(dp6154
sI6122
(dp6155
sI6123
(dp6156
sI6124
(dp6157
sI6125
(dp6158
sI6126
(dp6159
sI6127
(dp6160
sI6128
(dp6161
sI6129
(dp6162
sI6130
(dp6163
sI6131
(dp6164
sI6132
(dp6165
sI6133
(dp6166
sI6134
(dp6167
sI6135
(dp6168
sI6136
(dp6169
sI6137
(dp6170
sI6138
(dp6171
sI6139
(dp6172
sI6140
(dp6173
sI6141
(dp6174
sI6142
(dp6175
sI6143
(dp6176
sI6144
(dp6177
sI6145
(dp6178
sI6146
(dp6179
sI6147
(dp6180
sI6148
(dp6181
sI6149
(dp6182
sI6150
(dp6183
sI6151
(dp6184
sI6152
(dp6185
sI6153
(dp6186
sI6154
(dp6187
sI6155
(dp6188
sI6156
(dp6189
sI6157
(dp6190
sI6158
(dp6191
sI6159
(dp6192
sI6160
(dp6193
sI6161
(dp6194
sI6162
(dp6195
sI6163
(dp6196
sI6164
(dp6197
sI6165
(dp6198
sI6166
(dp6199
sI6167
(dp6200
sI6168
(dp6201
sI6169
(dp6202
sI6170
(dp6203
sI6171
(dp6204
sI6172
(dp6205
sI6173
(dp6206
sI6174
(dp6207
sI6175
(dp6208
sI6176
(dp6209
sI6177
(dp6210
sI6178
(dp6211
sI6179
(dp6212
sI6180
(dp6213
sI6181
(dp6214
sI6182
(dp6215
sI6183
(dp6216
sI6184
(dp6217
sI6185
(dp6218
sI6186
(dp6219
sI6187
(dp6220
sI6188
(dp6221
sI6189
(dp6222
sI6190
(dp6223
sI6191
(dp6224
sI6192
(dp6225
sI6193
(dp6226
sI6194
(dp6227
sI6195
(dp6228
sI6196
(dp6229
sI6197
(dp6230
sI6198
(dp6231
sI6199
(dp6232
sI6200
(dp6233
sI6201
(dp6234
sI6202
(dp6235
sI6203
(dp6236
sI6204
(dp6237
sI6205
(dp6238
sI6206
(dp6239
sI6207
(dp6240
sI6208
(dp6241
sI6209
(dp6242
sI6210
(dp6243
sI6211
(dp6244
sI6212
(dp6245
sI6213
(dp6246
sI6214
(dp6247
sI6215
(dp6248
sI6216
(dp6249
sI6217
(dp6250
sI6218
(dp6251
sI6219
(dp6252
sI6220
(dp6253
sI6221
(dp6254
sI6222
(dp6255
sI6223
(dp6256
sI6224
(dp6257
sI6225
(dp6258
sI6226
(dp6259
sI6227
(dp6260
sI6228
(dp6261
sI6229
(dp6262
sI6230
(dp6263
sI6231
(dp6264
sI6232
(dp6265
sI6233
(dp6266
sI6234
(dp6267
sI6235
(dp6268
sI6236
(dp6269
sI6237
(dp6270
sI6238
(dp6271
sI6239
(dp6272
sI6240
(dp6273
sI6241
(dp6274
sI6242
(dp6275
sI6243
(dp6276
sI6244
(dp6277
sI6245
(dp6278
sI6246
(dp6279
sI6247
(dp6280
sI6248
(dp6281
sI6249
(dp6282
sI6250
(dp6283
sI6251
(dp6284
sI6252
(dp6285
sI6253
(dp6286
sI6254
(dp6287
sI6255
(dp6288
sI6256
(dp6289
sI6257
(dp6290
sI6258
(dp6291
sI6259
(dp6292
sI6260
(dp6293
sI6261
(dp6294
sI6262
(dp6295
sI6263
(dp6296
sI6264
(dp6297
sI6265
(dp6298
sI6266
(dp6299
sI6267
(dp6300
sI6268
(dp6301
sI6269
(dp6302
sI6270
(dp6303
sI6271
(dp6304
sI6272
(dp6305
sI6273
(dp6306
sI6274
(dp6307
sI6275
(dp6308
sI6276
(dp6309
sI6277
(dp6310
sI6278
(dp6311
sI6279
(dp6312
sI6280
(dp6313
sI6281
(dp6314
sI6282
(dp6315
sI6283
(dp6316
sI6284
(dp6317
sI6285
(dp6318
sI6286
(dp6319
sI6287
(dp6320
sI6288
(dp6321
sI6289
(dp6322
sI6290
(dp6323
sI6291
(dp6324
sI6292
(dp6325
sI6293
(dp6326
sI6294
(dp6327
sI6295
(dp6328
sI6296
(dp6329
sI6297
(dp6330
sI6298
(dp6331
sI6299
(dp6332
sI6300
(dp6333
sI6301
(dp6334
sI6302
(dp6335
sI6303
(dp6336
sI6304
(dp6337
sI6305
(dp6338
sI6306
(dp6339
sI6307
(dp6340
sI6308
(dp6341
sI6309
(dp6342
sI6310
(dp6343
sI6311
(dp6344
sI6312
(dp6345
sI6313
(dp6346
sI6314
(dp6347
sI6315
(dp6348
sI6316
(dp6349
sI6317
(dp6350
sI6318
(dp6351
sI6319
(dp6352
sI6320
(dp6353
sI6321
(dp6354
sI6322
(dp6355
sI6323
(dp6356
sI6324
(dp6357
sI6325
(dp6358
sI6326
(dp6359
sI6327
(dp6360
sI6328
(dp6361
sI6329
(dp6362
sI6330
(dp6363
sI6331
(dp6364
sI6332
(dp6365
sI6333
(dp6366
sI6334
(dp6367
sI6335
(dp6368
sI6336
(dp6369
sI6337
(dp6370
sI6338
(dp6371
sI6339
(dp6372
sI6340
(dp6373
sI6341
(dp6374
sI6342
(dp6375
sI6343
(dp6376
sI6344
(dp6377
sI6345
(dp6378
sI6346
(dp6379
sI6347
(dp6380
sI6348
(dp6381
sI6349
(dp6382
sI6350
(dp6383
sI6351
(dp6384
sI6352
(dp6385
sI6353
(dp6386
sI6354
(dp6387
sI6355
(dp6388
sI6356
(dp6389
sI6357
(dp6390
sI6358
(dp6391
sI6359
(dp6392
sI6360
(dp6393
sI6361
(dp6394
sI6362
(dp6395
sI6363
(dp6396
sI6364
(dp6397
sI6365
(dp6398
sI6366
(dp6399
sI6367
(dp6400
sI6368
(dp6401
sI6369
(dp6402
sI6370
(dp6403
sI6371
(dp6404
sI6372
(dp6405
sI6373
(dp6406
sI6374
(dp6407
sI6375
(dp6408
sI6376
(dp6409
sI6377
(dp6410
sI6378
(dp6411
sI6379
(dp6412
sI6380
(dp6413
sI6381
(dp6414
sI6382
(dp6415
sI6383
(dp6416
sI6384
(dp6417
sI6385
(dp6418
sI6386
(dp6419
sI6387
(dp6420
sI6388
(dp6421
sI6389
(dp6422
sI6390
(dp6423
sI6391
(dp6424
sI6392
(dp6425
sI6393
(dp6426
sI6394
(dp6427
sI6395
(dp6428
sI6396
(dp6429
sI6397
(dp6430
sI6398
(dp6431
sI6399
(dp6432
sI6400
(dp6433
sI6401
(dp6434
sI6402
(dp6435
sI6403
(dp6436
sI6404
(dp6437
sI6405
(dp6438
sI6406
(dp6439
sI6407
(dp6440
sI6408
(dp6441
sI6409
(dp6442
sI6410
(dp6443
sI6411
(dp6444
sI6412
(dp6445
sI6413
(dp6446
sI6414
(dp6447
sI6415
(dp6448
sI6416
(dp6449
sI6417
(dp6450
sI6418
(dp6451
sI6419
(dp6452
sI6420
(dp6453
sI6421
(dp6454
sI6422
(dp6455
sI6423
(dp6456
sI6424
(dp6457
sI6425
(dp6458
sI6426
(dp6459
sI6427
(dp6460
sI6428
(dp6461
sI6429
(dp6462
sI6430
(dp6463
sI6431
(dp6464
sI6432
(dp6465
sI6433
(dp6466
sI6434
(dp6467
sI6435
(dp6468
sI6436
(dp6469
sI6437
(dp6470
sI6438
(dp6471
sI6439
(dp6472
sI6440
(dp6473
sI6441
(dp6474
sI6442
(dp6475
sI6443
(dp6476
sI6444
(dp6477
sI6445
(dp6478
sI6446
(dp6479
sI6447
(dp6480
sI6448
(dp6481
sI6449
(dp6482
sI6450
(dp6483
sI6451
(dp6484
sI6452
(dp6485
sI6453
(dp6486
sI6454
(dp6487
sI6455
(dp6488
sI6456
(dp6489
sI6457
(dp6490
sI6458
(dp6491
sI6459
(dp6492
sI6460
(dp6493
sI6461
(dp6494
sI6462
(dp6495
sI6463
(dp6496
sI6464
(dp6497
sI6465
(dp6498
sI6466
(dp6499
sI6467
(dp6500
sI6468
(dp6501
sI6469
(dp6502
sI6470
(dp6503
sI6471
(dp6504
sI6472
(dp6505
sI6473
(dp6506
sI6474
(dp6507
sI6475
(dp6508
sI6476
(dp6509
sI6477
(dp6510
sI6478
(dp6511
sI6479
(dp6512
sI6480
(dp6513
sI6481
(dp6514
sI6482
(dp6515
sI6483
(dp6516
sI6484
(dp6517
sI6485
(dp6518
sI6486
(dp6519
sI6487
(dp6520
sI6488
(dp6521
sI6489
(dp6522
sI6490
(dp6523
sI6491
(dp6524
sI6492
(dp6525
sI6493
(dp6526
sI6494
(dp6527
sI6495
(dp6528
sI6496
(dp6529
sI6497
(dp6530
sI6498
(dp6531
sI6499
(dp6532
sI6500
(dp6533
S'train_reconstruct_error'
p6534
g5
(g6
(I0
tS'b'
tRp6535
(I1
(tg9
I00
S'\xda\xcapB'
tbssI6501
(dp6536
sI6502
(dp6537
sI6503
(dp6538
sI6504
(dp6539
sI6505
(dp6540
sI6506
(dp6541
sI6507
(dp6542
sI6508
(dp6543
sI6509
(dp6544
sI6510
(dp6545
sI6511
(dp6546
sI6512
(dp6547
sI6513
(dp6548
sI6514
(dp6549
sI6515
(dp6550
sI6516
(dp6551
sI6517
(dp6552
sI6518
(dp6553
sI6519
(dp6554
sI6520
(dp6555
sI6521
(dp6556
sI6522
(dp6557
sI6523
(dp6558
sI6524
(dp6559
sI6525
(dp6560
sI6526
(dp6561
sI6527
(dp6562
sI6528
(dp6563
sI6529
(dp6564
sI6530
(dp6565
sI6531
(dp6566
sI6532
(dp6567
sI6533
(dp6568
sI6534
(dp6569
sI6535
(dp6570
sI6536
(dp6571
sI6537
(dp6572
sI6538
(dp6573
sI6539
(dp6574
sI6540
(dp6575
sI6541
(dp6576
sI6542
(dp6577
sI6543
(dp6578
sI6544
(dp6579
sI6545
(dp6580
sI6546
(dp6581
sI6547
(dp6582
sI6548
(dp6583
sI6549
(dp6584
sI6550
(dp6585
sI6551
(dp6586
sI6552
(dp6587
sI6553
(dp6588
sI6554
(dp6589
sI6555
(dp6590
sI6556
(dp6591
sI6557
(dp6592
sI6558
(dp6593
sI6559
(dp6594
sI6560
(dp6595
sI6561
(dp6596
sI6562
(dp6597
sI6563
(dp6598
sI6564
(dp6599
sI6565
(dp6600
sI6566
(dp6601
sI6567
(dp6602
sI6568
(dp6603
sI6569
(dp6604
sI6570
(dp6605
sI6571
(dp6606
sI6572
(dp6607
sI6573
(dp6608
sI6574
(dp6609
sI6575
(dp6610
sI6576
(dp6611
sI6577
(dp6612
sI6578
(dp6613
sI6579
(dp6614
sI6580
(dp6615
sI6581
(dp6616
sI6582
(dp6617
sI6583
(dp6618
sI6584
(dp6619
sI6585
(dp6620
sI6586
(dp6621
sI6587
(dp6622
sI6588
(dp6623
sI6589
(dp6624
sI6590
(dp6625
sI6591
(dp6626
sI6592
(dp6627
sI6593
(dp6628
sI6594
(dp6629
sI6595
(dp6630
sI6596
(dp6631
sI6597
(dp6632
sI6598
(dp6633
sI6599
(dp6634
sI6600
(dp6635
sI6601
(dp6636
sI6602
(dp6637
sI6603
(dp6638
sI6604
(dp6639
sI6605
(dp6640
sI6606
(dp6641
sI6607
(dp6642
sI6608
(dp6643
sI6609
(dp6644
sI6610
(dp6645
sI6611
(dp6646
sI6612
(dp6647
sI6613
(dp6648
sI6614
(dp6649
sI6615
(dp6650
sI6616
(dp6651
sI6617
(dp6652
sI6618
(dp6653
sI6619
(dp6654
sI6620
(dp6655
sI6621
(dp6656
sI6622
(dp6657
sI6623
(dp6658
sI6624
(dp6659
sI6625
(dp6660
sI6626
(dp6661
sI6627
(dp6662
sI6628
(dp6663
sI6629
(dp6664
sI6630
(dp6665
sI6631
(dp6666
sI6632
(dp6667
sI6633
(dp6668
sI6634
(dp6669
sI6635
(dp6670
sI6636
(dp6671
sI6637
(dp6672
sI6638
(dp6673
sI6639
(dp6674
sI6640
(dp6675
sI6641
(dp6676
sI6642
(dp6677
sI6643
(dp6678
sI6644
(dp6679
sI6645
(dp6680
sI6646
(dp6681
sI6647
(dp6682
sI6648
(dp6683
sI6649
(dp6684
sI6650
(dp6685
sI6651
(dp6686
sI6652
(dp6687
sI6653
(dp6688
sI6654
(dp6689
sI6655
(dp6690
sI6656
(dp6691
sI6657
(dp6692
sI6658
(dp6693
sI6659
(dp6694
sI6660
(dp6695
sI6661
(dp6696
sI6662
(dp6697
sI6663
(dp6698
sI6664
(dp6699
sI6665
(dp6700
sI6666
(dp6701
sI6667
(dp6702
sI6668
(dp6703
sI6669
(dp6704
sI6670
(dp6705
sI6671
(dp6706
sI6672
(dp6707
sI6673
(dp6708
sI6674
(dp6709
sI6675
(dp6710
sI6676
(dp6711
sI6677
(dp6712
sI6678
(dp6713
sI6679
(dp6714
sI6680
(dp6715
sI6681
(dp6716
sI6682
(dp6717
sI6683
(dp6718
sI6684
(dp6719
sI6685
(dp6720
sI6686
(dp6721
sI6687
(dp6722
sI6688
(dp6723
sI6689
(dp6724
sI6690
(dp6725
sI6691
(dp6726
sI6692
(dp6727
sI6693
(dp6728
sI6694
(dp6729
sI6695
(dp6730
sI6696
(dp6731
sI6697
(dp6732
sI6698
(dp6733
sI6699
(dp6734
sI6700
(dp6735
sI6701
(dp6736
sI6702
(dp6737
sI6703
(dp6738
sI6704
(dp6739
sI6705
(dp6740
sI6706
(dp6741
sI6707
(dp6742
sI6708
(dp6743
sI6709
(dp6744
sI6710
(dp6745
sI6711
(dp6746
sI6712
(dp6747
sI6713
(dp6748
sI6714
(dp6749
sI6715
(dp6750
sI6716
(dp6751
sI6717
(dp6752
sI6718
(dp6753
sI6719
(dp6754
sI6720
(dp6755
sI6721
(dp6756
sI6722
(dp6757
sI6723
(dp6758
sI6724
(dp6759
sI6725
(dp6760
sI6726
(dp6761
sI6727
(dp6762
sI6728
(dp6763
sI6729
(dp6764
sI6730
(dp6765
sI6731
(dp6766
sI6732
(dp6767
sI6733
(dp6768
sI6734
(dp6769
sI6735
(dp6770
sI6736
(dp6771
sI6737
(dp6772
sI6738
(dp6773
sI6739
(dp6774
sI6740
(dp6775
sI6741
(dp6776
sI6742
(dp6777
sI6743
(dp6778
sI6744
(dp6779
sI6745
(dp6780
sI6746
(dp6781
sI6747
(dp6782
sI6748
(dp6783
sI6749
(dp6784
sI6750
(dp6785
sI6751
(dp6786
sI6752
(dp6787
sI6753
(dp6788
sI6754
(dp6789
sI6755
(dp6790
sI6756
(dp6791
sI6757
(dp6792
sI6758
(dp6793
sI6759
(dp6794
sI6760
(dp6795
sI6761
(dp6796
sI6762
(dp6797
sI6763
(dp6798
sI6764
(dp6799
sI6765
(dp6800
sI6766
(dp6801
sI6767
(dp6802
sI6768
(dp6803
sI6769
(dp6804
sI6770
(dp6805
sI6771
(dp6806
sI6772
(dp6807
sI6773
(dp6808
sI6774
(dp6809
sI6775
(dp6810
sI6776
(dp6811
sI6777
(dp6812
sI6778
(dp6813
sI6779
(dp6814
sI6780
(dp6815
sI6781
(dp6816
sI6782
(dp6817
sI6783
(dp6818
sI6784
(dp6819
sI6785
(dp6820
sI6786
(dp6821
sI6787
(dp6822
sI6788
(dp6823
sI6789
(dp6824
sI6790
(dp6825
sI6791
(dp6826
sI6792
(dp6827
sI6793
(dp6828
sI6794
(dp6829
sI6795
(dp6830
sI6796
(dp6831
sI6797
(dp6832
sI6798
(dp6833
sI6799
(dp6834
sI6800
(dp6835
sI6801
(dp6836
sI6802
(dp6837
sI6803
(dp6838
sI6804
(dp6839
sI6805
(dp6840
sI6806
(dp6841
sI6807
(dp6842
sI6808
(dp6843
sI6809
(dp6844
sI6810
(dp6845
sI6811
(dp6846
sI6812
(dp6847
sI6813
(dp6848
sI6814
(dp6849
sI6815
(dp6850
sI6816
(dp6851
sI6817
(dp6852
sI6818
(dp6853
sI6819
(dp6854
sI6820
(dp6855
sI6821
(dp6856
sI6822
(dp6857
sI6823
(dp6858
sI6824
(dp6859
sI6825
(dp6860
sI6826
(dp6861
sI6827
(dp6862
sI6828
(dp6863
sI6829
(dp6864
sI6830
(dp6865
sI6831
(dp6866
sI6832
(dp6867
sI6833
(dp6868
sI6834
(dp6869
sI6835
(dp6870
sI6836
(dp6871
sI6837
(dp6872
sI6838
(dp6873
sI6839
(dp6874
sI6840
(dp6875
sI6841
(dp6876
sI6842
(dp6877
sI6843
(dp6878
sI6844
(dp6879
sI6845
(dp6880
sI6846
(dp6881
sI6847
(dp6882
sI6848
(dp6883
sI6849
(dp6884
sI6850
(dp6885
sI6851
(dp6886
sI6852
(dp6887
sI6853
(dp6888
sI6854
(dp6889
sI6855
(dp6890
sI6856
(dp6891
sI6857
(dp6892
sI6858
(dp6893
sI6859
(dp6894
sI6860
(dp6895
sI6861
(dp6896
sI6862
(dp6897
sI6863
(dp6898
sI6864
(dp6899
sI6865
(dp6900
sI6866
(dp6901
sI6867
(dp6902
sI6868
(dp6903
sI6869
(dp6904
sI6870
(dp6905
sI6871
(dp6906
sI6872
(dp6907
sI6873
(dp6908
sI6874
(dp6909
sI6875
(dp6910
sI6876
(dp6911
sI6877
(dp6912
sI6878
(dp6913
sI6879
(dp6914
sI6880
(dp6915
sI6881
(dp6916
sI6882
(dp6917
sI6883
(dp6918
sI6884
(dp6919
sI6885
(dp6920
sI6886
(dp6921
sI6887
(dp6922
sI6888
(dp6923
sI6889
(dp6924
sI6890
(dp6925
sI6891
(dp6926
sI6892
(dp6927
sI6893
(dp6928
sI6894
(dp6929
sI6895
(dp6930
sI6896
(dp6931
sI6897
(dp6932
sI6898
(dp6933
sI6899
(dp6934
sI6900
(dp6935
sI6901
(dp6936
sI6902
(dp6937
sI6903
(dp6938
sI6904
(dp6939
sI6905
(dp6940
sI6906
(dp6941
sI6907
(dp6942
sI6908
(dp6943
sI6909
(dp6944
sI6910
(dp6945
sI6911
(dp6946
sI6912
(dp6947
sI6913
(dp6948
sI6914
(dp6949
sI6915
(dp6950
sI6916
(dp6951
sI6917
(dp6952
sI6918
(dp6953
sI6919
(dp6954
sI6920
(dp6955
sI6921
(dp6956
sI6922
(dp6957
sI6923
(dp6958
sI6924
(dp6959
sI6925
(dp6960
sI6926
(dp6961
sI6927
(dp6962
sI6928
(dp6963
sI6929
(dp6964
sI6930
(dp6965
sI6931
(dp6966
sI6932
(dp6967
sI6933
(dp6968
sI6934
(dp6969
sI6935
(dp6970
sI6936
(dp6971
sI6937
(dp6972
sI6938
(dp6973
sI6939
(dp6974
sI6940
(dp6975
sI6941
(dp6976
sI6942
(dp6977
sI6943
(dp6978
sI6944
(dp6979
sI6945
(dp6980
sI6946
(dp6981
sI6947
(dp6982
sI6948
(dp6983
sI6949
(dp6984
sI6950
(dp6985
sI6951
(dp6986
sI6952
(dp6987
sI6953
(dp6988
sI6954
(dp6989
sI6955
(dp6990
sI6956
(dp6991
sI6957
(dp6992
sI6958
(dp6993
sI6959
(dp6994
sI6960
(dp6995
sI6961
(dp6996
sI6962
(dp6997
sI6963
(dp6998
sI6964
(dp6999
sI6965
(dp7000
sI6966
(dp7001
sI6967
(dp7002
sI6968
(dp7003
sI6969
(dp7004
sI6970
(dp7005
sI6971
(dp7006
sI6972
(dp7007
sI6973
(dp7008
sI6974
(dp7009
sI6975
(dp7010
sI6976
(dp7011
sI6977
(dp7012
sI6978
(dp7013
sI6979
(dp7014
sI6980
(dp7015
sI6981
(dp7016
sI6982
(dp7017
sI6983
(dp7018
sI6984
(dp7019
sI6985
(dp7020
sI6986
(dp7021
sI6987
(dp7022
sI6988
(dp7023
sI6989
(dp7024
sI6990
(dp7025
sI6991
(dp7026
sI6992
(dp7027
sI6993
(dp7028
sI6994
(dp7029
sI6995
(dp7030
sI6996
(dp7031
sI6997
(dp7032
sI6998
(dp7033
sI6999
(dp7034
sI7000
(dp7035
S'train_reconstruct_error'
p7036
g5
(g6
(I0
tS'b'
tRp7037
(I1
(tg9
I00
S'\x92\xd2lB'
tbssI7001
(dp7038
sI7002
(dp7039
sI7003
(dp7040
sI7004
(dp7041
sI7005
(dp7042
sI7006
(dp7043
sI7007
(dp7044
sI7008
(dp7045
sI7009
(dp7046
sI7010
(dp7047
sI7011
(dp7048
sI7012
(dp7049
sI7013
(dp7050
sI7014
(dp7051
sI7015
(dp7052
sI7016
(dp7053
sI7017
(dp7054
sI7018
(dp7055
sI7019
(dp7056
sI7020
(dp7057
sI7021
(dp7058
sI7022
(dp7059
sI7023
(dp7060
sI7024
(dp7061
sI7025
(dp7062
sI7026
(dp7063
sI7027
(dp7064
sI7028
(dp7065
sI7029
(dp7066
sI7030
(dp7067
sI7031
(dp7068
sI7032
(dp7069
sI7033
(dp7070
sI7034
(dp7071
sI7035
(dp7072
sI7036
(dp7073
sI7037
(dp7074
sI7038
(dp7075
sI7039
(dp7076
sI7040
(dp7077
sI7041
(dp7078
sI7042
(dp7079
sI7043
(dp7080
sI7044
(dp7081
sI7045
(dp7082
sI7046
(dp7083
sI7047
(dp7084
sI7048
(dp7085
sI7049
(dp7086
sI7050
(dp7087
sI7051
(dp7088
sI7052
(dp7089
sI7053
(dp7090
sI7054
(dp7091
sI7055
(dp7092
sI7056
(dp7093
sI7057
(dp7094
sI7058
(dp7095
sI7059
(dp7096
sI7060
(dp7097
sI7061
(dp7098
sI7062
(dp7099
sI7063
(dp7100
sI7064
(dp7101
sI7065
(dp7102
sI7066
(dp7103
sI7067
(dp7104
sI7068
(dp7105
sI7069
(dp7106
sI7070
(dp7107
sI7071
(dp7108
sI7072
(dp7109
sI7073
(dp7110
sI7074
(dp7111
sI7075
(dp7112
sI7076
(dp7113
sI7077
(dp7114
sI7078
(dp7115
sI7079
(dp7116
sI7080
(dp7117
sI7081
(dp7118
sI7082
(dp7119
sI7083
(dp7120
sI7084
(dp7121
sI7085
(dp7122
sI7086
(dp7123
sI7087
(dp7124
sI7088
(dp7125
sI7089
(dp7126
sI7090
(dp7127
sI7091
(dp7128
sI7092
(dp7129
sI7093
(dp7130
sI7094
(dp7131
sI7095
(dp7132
sI7096
(dp7133
sI7097
(dp7134
sI7098
(dp7135
sI7099
(dp7136
sI7100
(dp7137
sI7101
(dp7138
sI7102
(dp7139
sI7103
(dp7140
sI7104
(dp7141
sI7105
(dp7142
sI7106
(dp7143
sI7107
(dp7144
sI7108
(dp7145
sI7109
(dp7146
sI7110
(dp7147
sI7111
(dp7148
sI7112
(dp7149
sI7113
(dp7150
sI7114
(dp7151
sI7115
(dp7152
sI7116
(dp7153
sI7117
(dp7154
sI7118
(dp7155
sI7119
(dp7156
sI7120
(dp7157
sI7121
(dp7158
sI7122
(dp7159
sI7123
(dp7160
sI7124
(dp7161
sI7125
(dp7162
sI7126
(dp7163
sI7127
(dp7164
sI7128
(dp7165
sI7129
(dp7166
sI7130
(dp7167
sI7131
(dp7168
sI7132
(dp7169
sI7133
(dp7170
sI7134
(dp7171
sI7135
(dp7172
sI7136
(dp7173
sI7137
(dp7174
sI7138
(dp7175
sI7139
(dp7176
sI7140
(dp7177
sI7141
(dp7178
sI7142
(dp7179
sI7143
(dp7180
sI7144
(dp7181
sI7145
(dp7182
sI7146
(dp7183
sI7147
(dp7184
sI7148
(dp7185
sI7149
(dp7186
sI7150
(dp7187
sI7151
(dp7188
sI7152
(dp7189
sI7153
(dp7190
sI7154
(dp7191
sI7155
(dp7192
sI7156
(dp7193
sI7157
(dp7194
sI7158
(dp7195
sI7159
(dp7196
sI7160
(dp7197
sI7161
(dp7198
sI7162
(dp7199
sI7163
(dp7200
sI7164
(dp7201
sI7165
(dp7202
sI7166
(dp7203
sI7167
(dp7204
sI7168
(dp7205
sI7169
(dp7206
sI7170
(dp7207
sI7171
(dp7208
sI7172
(dp7209
sI7173
(dp7210
sI7174
(dp7211
sI7175
(dp7212
sI7176
(dp7213
sI7177
(dp7214
sI7178
(dp7215
sI7179
(dp7216
sI7180
(dp7217
sI7181
(dp7218
sI7182
(dp7219
sI7183
(dp7220
sI7184
(dp7221
sI7185
(dp7222
sI7186
(dp7223
sI7187
(dp7224
sI7188
(dp7225
sI7189
(dp7226
sI7190
(dp7227
sI7191
(dp7228
sI7192
(dp7229
sI7193
(dp7230
sI7194
(dp7231
sI7195
(dp7232
sI7196
(dp7233
sI7197
(dp7234
sI7198
(dp7235
sI7199
(dp7236
sI7200
(dp7237
sI7201
(dp7238
sI7202
(dp7239
sI7203
(dp7240
sI7204
(dp7241
sI7205
(dp7242
sI7206
(dp7243
sI7207
(dp7244
sI7208
(dp7245
sI7209
(dp7246
sI7210
(dp7247
sI7211
(dp7248
sI7212
(dp7249
sI7213
(dp7250
sI7214
(dp7251
sI7215
(dp7252
sI7216
(dp7253
sI7217
(dp7254
sI7218
(dp7255
sI7219
(dp7256
sI7220
(dp7257
sI7221
(dp7258
sI7222
(dp7259
sI7223
(dp7260
sI7224
(dp7261
sI7225
(dp7262
sI7226
(dp7263
sI7227
(dp7264
sI7228
(dp7265
sI7229
(dp7266
sI7230
(dp7267
sI7231
(dp7268
sI7232
(dp7269
sI7233
(dp7270
sI7234
(dp7271
sI7235
(dp7272
sI7236
(dp7273
sI7237
(dp7274
sI7238
(dp7275
sI7239
(dp7276
sI7240
(dp7277
sI7241
(dp7278
sI7242
(dp7279
sI7243
(dp7280
sI7244
(dp7281
sI7245
(dp7282
sI7246
(dp7283
sI7247
(dp7284
sI7248
(dp7285
sI7249
(dp7286
sI7250
(dp7287
sI7251
(dp7288
sI7252
(dp7289
sI7253
(dp7290
sI7254
(dp7291
sI7255
(dp7292
sI7256
(dp7293
sI7257
(dp7294
sI7258
(dp7295
sI7259
(dp7296
sI7260
(dp7297
sI7261
(dp7298
sI7262
(dp7299
sI7263
(dp7300
sI7264
(dp7301
sI7265
(dp7302
sI7266
(dp7303
sI7267
(dp7304
sI7268
(dp7305
sI7269
(dp7306
sI7270
(dp7307
sI7271
(dp7308
sI7272
(dp7309
sI7273
(dp7310
sI7274
(dp7311
sI7275
(dp7312
sI7276
(dp7313
sI7277
(dp7314
sI7278
(dp7315
sI7279
(dp7316
sI7280
(dp7317
sI7281
(dp7318
sI7282
(dp7319
sI7283
(dp7320
sI7284
(dp7321
sI7285
(dp7322
sI7286
(dp7323
sI7287
(dp7324
sI7288
(dp7325
sI7289
(dp7326
sI7290
(dp7327
sI7291
(dp7328
sI7292
(dp7329
sI7293
(dp7330
sI7294
(dp7331
sI7295
(dp7332
sI7296
(dp7333
sI7297
(dp7334
sI7298
(dp7335
sI7299
(dp7336
sI7300
(dp7337
sI7301
(dp7338
sI7302
(dp7339
sI7303
(dp7340
sI7304
(dp7341
sI7305
(dp7342
sI7306
(dp7343
sI7307
(dp7344
sI7308
(dp7345
sI7309
(dp7346
sI7310
(dp7347
sI7311
(dp7348
sI7312
(dp7349
sI7313
(dp7350
sI7314
(dp7351
sI7315
(dp7352
sI7316
(dp7353
sI7317
(dp7354
sI7318
(dp7355
sI7319
(dp7356
sI7320
(dp7357
sI7321
(dp7358
sI7322
(dp7359
sI7323
(dp7360
sI7324
(dp7361
sI7325
(dp7362
sI7326
(dp7363
sI7327
(dp7364
sI7328
(dp7365
sI7329
(dp7366
sI7330
(dp7367
sI7331
(dp7368
sI7332
(dp7369
sI7333
(dp7370
sI7334
(dp7371
sI7335
(dp7372
sI7336
(dp7373
sI7337
(dp7374
sI7338
(dp7375
sI7339
(dp7376
sI7340
(dp7377
sI7341
(dp7378
sI7342
(dp7379
sI7343
(dp7380
sI7344
(dp7381
sI7345
(dp7382
sI7346
(dp7383
sI7347
(dp7384
sI7348
(dp7385
sI7349
(dp7386
sI7350
(dp7387
sI7351
(dp7388
sI7352
(dp7389
sI7353
(dp7390
sI7354
(dp7391
sI7355
(dp7392
sI7356
(dp7393
sI7357
(dp7394
sI7358
(dp7395
sI7359
(dp7396
sI7360
(dp7397
sI7361
(dp7398
sI7362
(dp7399
sI7363
(dp7400
sI7364
(dp7401
sI7365
(dp7402
sI7366
(dp7403
sI7367
(dp7404
sI7368
(dp7405
sI7369
(dp7406
sI7370
(dp7407
sI7371
(dp7408
sI7372
(dp7409
sI7373
(dp7410
sI7374
(dp7411
sI7375
(dp7412
sI7376
(dp7413
sI7377
(dp7414
sI7378
(dp7415
sI7379
(dp7416
sI7380
(dp7417
sI7381
(dp7418
sI7382
(dp7419
sI7383
(dp7420
sI7384
(dp7421
sI7385
(dp7422
sI7386
(dp7423
sI7387
(dp7424
sI7388
(dp7425
sI7389
(dp7426
sI7390
(dp7427
sI7391
(dp7428
sI7392
(dp7429
sI7393
(dp7430
sI7394
(dp7431
sI7395
(dp7432
sI7396
(dp7433
sI7397
(dp7434
sI7398
(dp7435
sI7399
(dp7436
sI7400
(dp7437
sI7401
(dp7438
sI7402
(dp7439
sI7403
(dp7440
sI7404
(dp7441
sI7405
(dp7442
sI7406
(dp7443
sI7407
(dp7444
sI7408
(dp7445
sI7409
(dp7446
sI7410
(dp7447
sI7411
(dp7448
sI7412
(dp7449
sI7413
(dp7450
sI7414
(dp7451
sI7415
(dp7452
sI7416
(dp7453
sI7417
(dp7454
sI7418
(dp7455
sI7419
(dp7456
sI7420
(dp7457
sI7421
(dp7458
sI7422
(dp7459
sI7423
(dp7460
sI7424
(dp7461
sI7425
(dp7462
sI7426
(dp7463
sI7427
(dp7464
sI7428
(dp7465
sI7429
(dp7466
sI7430
(dp7467
sI7431
(dp7468
sI7432
(dp7469
sI7433
(dp7470
sI7434
(dp7471
sI7435
(dp7472
sI7436
(dp7473
sI7437
(dp7474
sI7438
(dp7475
sI7439
(dp7476
sI7440
(dp7477
sI7441
(dp7478
sI7442
(dp7479
sI7443
(dp7480
sI7444
(dp7481
sI7445
(dp7482
sI7446
(dp7483
sI7447
(dp7484
sI7448
(dp7485
sI7449
(dp7486
sI7450
(dp7487
sI7451
(dp7488
sI7452
(dp7489
sI7453
(dp7490
sI7454
(dp7491
sI7455
(dp7492
sI7456
(dp7493
sI7457
(dp7494
sI7458
(dp7495
sI7459
(dp7496
sI7460
(dp7497
sI7461
(dp7498
sI7462
(dp7499
sI7463
(dp7500
sI7464
(dp7501
sI7465
(dp7502
sI7466
(dp7503
sI7467
(dp7504
sI7468
(dp7505
sI7469
(dp7506
sI7470
(dp7507
sI7471
(dp7508
sI7472
(dp7509
sI7473
(dp7510
sI7474
(dp7511
sI7475
(dp7512
sI7476
(dp7513
sI7477
(dp7514
sI7478
(dp7515
sI7479
(dp7516
sI7480
(dp7517
sI7481
(dp7518
sI7482
(dp7519
sI7483
(dp7520
sI7484
(dp7521
sI7485
(dp7522
sI7486
(dp7523
sI7487
(dp7524
sI7488
(dp7525
sI7489
(dp7526
sI7490
(dp7527
sI7491
(dp7528
sI7492
(dp7529
sI7493
(dp7530
sI7494
(dp7531
sI7495
(dp7532
sI7496
(dp7533
sI7497
(dp7534
sI7498
(dp7535
sI7499
(dp7536
sI7500
(dp7537
S'train_reconstruct_error'
p7538
g5
(g6
(I0
tS'b'
tRp7539
(I1
(tg9
I00
S'L\xcdhB'
tbssI7501
(dp7540
sI7502
(dp7541
sI7503
(dp7542
sI7504
(dp7543
sI7505
(dp7544
sI7506
(dp7545
sI7507
(dp7546
sI7508
(dp7547
sI7509
(dp7548
sI7510
(dp7549
sI7511
(dp7550
sI7512
(dp7551
sI7513
(dp7552
sI7514
(dp7553
sI7515
(dp7554
sI7516
(dp7555
sI7517
(dp7556
sI7518
(dp7557
sI7519
(dp7558
sI7520
(dp7559
sI7521
(dp7560
sI7522
(dp7561
sI7523
(dp7562
sI7524
(dp7563
sI7525
(dp7564
sI7526
(dp7565
sI7527
(dp7566
sI7528
(dp7567
sI7529
(dp7568
sI7530
(dp7569
sI7531
(dp7570
sI7532
(dp7571
sI7533
(dp7572
sI7534
(dp7573
sI7535
(dp7574
sI7536
(dp7575
sI7537
(dp7576
sI7538
(dp7577
sI7539
(dp7578
sI7540
(dp7579
sI7541
(dp7580
sI7542
(dp7581
sI7543
(dp7582
sI7544
(dp7583
sI7545
(dp7584
sI7546
(dp7585
sI7547
(dp7586
sI7548
(dp7587
sI7549
(dp7588
sI7550
(dp7589
sI7551
(dp7590
sI7552
(dp7591
sI7553
(dp7592
sI7554
(dp7593
sI7555
(dp7594
sI7556
(dp7595
sI7557
(dp7596
sI7558
(dp7597
sI7559
(dp7598
sI7560
(dp7599
sI7561
(dp7600
sI7562
(dp7601
sI7563
(dp7602
sI7564
(dp7603
sI7565
(dp7604
sI7566
(dp7605
sI7567
(dp7606
sI7568
(dp7607
sI7569
(dp7608
sI7570
(dp7609
sI7571
(dp7610
sI7572
(dp7611
sI7573
(dp7612
sI7574
(dp7613
sI7575
(dp7614
sI7576
(dp7615
sI7577
(dp7616
sI7578
(dp7617
sI7579
(dp7618
sI7580
(dp7619
sI7581
(dp7620
sI7582
(dp7621
sI7583
(dp7622
sI7584
(dp7623
sI7585
(dp7624
sI7586
(dp7625
sI7587
(dp7626
sI7588
(dp7627
sI7589
(dp7628
sI7590
(dp7629
sI7591
(dp7630
sI7592
(dp7631
sI7593
(dp7632
sI7594
(dp7633
sI7595
(dp7634
sI7596
(dp7635
sI7597
(dp7636
sI7598
(dp7637
sI7599
(dp7638
sI7600
(dp7639
sI7601
(dp7640
sI7602
(dp7641
sI7603
(dp7642
sI7604
(dp7643
sI7605
(dp7644
sI7606
(dp7645
sI7607
(dp7646
sI7608
(dp7647
sI7609
(dp7648
sI7610
(dp7649
sI7611
(dp7650
sI7612
(dp7651
sI7613
(dp7652
sI7614
(dp7653
sI7615
(dp7654
sI7616
(dp7655
sI7617
(dp7656
sI7618
(dp7657
sI7619
(dp7658
sI7620
(dp7659
sI7621
(dp7660
sI7622
(dp7661
sI7623
(dp7662
sI7624
(dp7663
sI7625
(dp7664
sI7626
(dp7665
sI7627
(dp7666
sI7628
(dp7667
sI7629
(dp7668
sI7630
(dp7669
sI7631
(dp7670
sI7632
(dp7671
sI7633
(dp7672
sI7634
(dp7673
sI7635
(dp7674
sI7636
(dp7675
sI7637
(dp7676
sI7638
(dp7677
sI7639
(dp7678
sI7640
(dp7679
sI7641
(dp7680
sI7642
(dp7681
sI7643
(dp7682
sI7644
(dp7683
sI7645
(dp7684
sI7646
(dp7685
sI7647
(dp7686
sI7648
(dp7687
sI7649
(dp7688
sI7650
(dp7689
sI7651
(dp7690
sI7652
(dp7691
sI7653
(dp7692
sI7654
(dp7693
sI7655
(dp7694
sI7656
(dp7695
sI7657
(dp7696
sI7658
(dp7697
sI7659
(dp7698
sI7660
(dp7699
sI7661
(dp7700
sI7662
(dp7701
sI7663
(dp7702
sI7664
(dp7703
sI7665
(dp7704
sI7666
(dp7705
sI7667
(dp7706
sI7668
(dp7707
sI7669
(dp7708
sI7670
(dp7709
sI7671
(dp7710
sI7672
(dp7711
sI7673
(dp7712
sI7674
(dp7713
sI7675
(dp7714
sI7676
(dp7715
sI7677
(dp7716
sI7678
(dp7717
sI7679
(dp7718
sI7680
(dp7719
sI7681
(dp7720
sI7682
(dp7721
sI7683
(dp7722
sI7684
(dp7723
sI7685
(dp7724
sI7686
(dp7725
sI7687
(dp7726
sI7688
(dp7727
sI7689
(dp7728
sI7690
(dp7729
sI7691
(dp7730
sI7692
(dp7731
sI7693
(dp7732
sI7694
(dp7733
sI7695
(dp7734
sI7696
(dp7735
sI7697
(dp7736
sI7698
(dp7737
sI7699
(dp7738
sI7700
(dp7739
sI7701
(dp7740
sI7702
(dp7741
sI7703
(dp7742
sI7704
(dp7743
sI7705
(dp7744
sI7706
(dp7745
sI7707
(dp7746
sI7708
(dp7747
sI7709
(dp7748
sI7710
(dp7749
sI7711
(dp7750
sI7712
(dp7751
sI7713
(dp7752
sI7714
(dp7753
sI7715
(dp7754
sI7716
(dp7755
sI7717
(dp7756
sI7718
(dp7757
sI7719
(dp7758
sI7720
(dp7759
sI7721
(dp7760
sI7722
(dp7761
sI7723
(dp7762
sI7724
(dp7763
sI7725
(dp7764
sI7726
(dp7765
sI7727
(dp7766
sI7728
(dp7767
sI7729
(dp7768
sI7730
(dp7769
sI7731
(dp7770
sI7732
(dp7771
sI7733
(dp7772
sI7734
(dp7773
sI7735
(dp7774
sI7736
(dp7775
sI7737
(dp7776
sI7738
(dp7777
sI7739
(dp7778
sI7740
(dp7779
sI7741
(dp7780
sI7742
(dp7781
sI7743
(dp7782
sI7744
(dp7783
sI7745
(dp7784
sI7746
(dp7785
sI7747
(dp7786
sI7748
(dp7787
sI7749
(dp7788
sI7750
(dp7789
sI7751
(dp7790
sI7752
(dp7791
sI7753
(dp7792
sI7754
(dp7793
sI7755
(dp7794
sI7756
(dp7795
sI7757
(dp7796
sI7758
(dp7797
sI7759
(dp7798
sI7760
(dp7799
sI7761
(dp7800
sI7762
(dp7801
sI7763
(dp7802
sI7764
(dp7803
sI7765
(dp7804
sI7766
(dp7805
sI7767
(dp7806
sI7768
(dp7807
sI7769
(dp7808
sI7770
(dp7809
sI7771
(dp7810
sI7772
(dp7811
sI7773
(dp7812
sI7774
(dp7813
sI7775
(dp7814
sI7776
(dp7815
sI7777
(dp7816
sI7778
(dp7817
sI7779
(dp7818
sI7780
(dp7819
sI7781
(dp7820
sI7782
(dp7821
sI7783
(dp7822
sI7784
(dp7823
sI7785
(dp7824
sI7786
(dp7825
sI7787
(dp7826
sI7788
(dp7827
sI7789
(dp7828
sI7790
(dp7829
sI7791
(dp7830
sI7792
(dp7831
sI7793
(dp7832
sI7794
(dp7833
sI7795
(dp7834
sI7796
(dp7835
sI7797
(dp7836
sI7798
(dp7837
sI7799
(dp7838
sI7800
(dp7839
sI7801
(dp7840
sI7802
(dp7841
sI7803
(dp7842
sI7804
(dp7843
sI7805
(dp7844
sI7806
(dp7845
sI7807
(dp7846
sI7808
(dp7847
sI7809
(dp7848
sI7810
(dp7849
sI7811
(dp7850
sI7812
(dp7851
sI7813
(dp7852
sI7814
(dp7853
sI7815
(dp7854
sI7816
(dp7855
sI7817
(dp7856
sI7818
(dp7857
sI7819
(dp7858
sI7820
(dp7859
sI7821
(dp7860
sI7822
(dp7861
sI7823
(dp7862
sI7824
(dp7863
sI7825
(dp7864
sI7826
(dp7865
sI7827
(dp7866
sI7828
(dp7867
sI7829
(dp7868
sI7830
(dp7869
sI7831
(dp7870
sI7832
(dp7871
sI7833
(dp7872
sI7834
(dp7873
sI7835
(dp7874
sI7836
(dp7875
sI7837
(dp7876
sI7838
(dp7877
sI7839
(dp7878
sI7840
(dp7879
sI7841
(dp7880
sI7842
(dp7881
sI7843
(dp7882
sI7844
(dp7883
sI7845
(dp7884
sI7846
(dp7885
sI7847
(dp7886
sI7848
(dp7887
sI7849
(dp7888
sI7850
(dp7889
sI7851
(dp7890
sI7852
(dp7891
sI7853
(dp7892
sI7854
(dp7893
sI7855
(dp7894
sI7856
(dp7895
sI7857
(dp7896
sI7858
(dp7897
sI7859
(dp7898
sI7860
(dp7899
sI7861
(dp7900
sI7862
(dp7901
sI7863
(dp7902
sI7864
(dp7903
sI7865
(dp7904
sI7866
(dp7905
sI7867
(dp7906
sI7868
(dp7907
sI7869
(dp7908
sI7870
(dp7909
sI7871
(dp7910
sI7872
(dp7911
sI7873
(dp7912
sI7874
(dp7913
sI7875
(dp7914
sI7876
(dp7915
sI7877
(dp7916
sI7878
(dp7917
sI7879
(dp7918
sI7880
(dp7919
sI7881
(dp7920
sI7882
(dp7921
sI7883
(dp7922
sI7884
(dp7923
sI7885
(dp7924
sI7886
(dp7925
sI7887
(dp7926
sI7888
(dp7927
sI7889
(dp7928
sI7890
(dp7929
sI7891
(dp7930
sI7892
(dp7931
sI7893
(dp7932
sI7894
(dp7933
sI7895
(dp7934
sI7896
(dp7935
sI7897
(dp7936
sI7898
(dp7937
sI7899
(dp7938
sI7900
(dp7939
sI7901
(dp7940
sI7902
(dp7941
sI7903
(dp7942
sI7904
(dp7943
sI7905
(dp7944
sI7906
(dp7945
sI7907
(dp7946
sI7908
(dp7947
sI7909
(dp7948
sI7910
(dp7949
sI7911
(dp7950
sI7912
(dp7951
sI7913
(dp7952
sI7914
(dp7953
sI7915
(dp7954
sI7916
(dp7955
sI7917
(dp7956
sI7918
(dp7957
sI7919
(dp7958
sI7920
(dp7959
sI7921
(dp7960
sI7922
(dp7961
sI7923
(dp7962
sI7924
(dp7963
sI7925
(dp7964
sI7926
(dp7965
sI7927
(dp7966
sI7928
(dp7967
sI7929
(dp7968
sI7930
(dp7969
sI7931
(dp7970
sI7932
(dp7971
sI7933
(dp7972
sI7934
(dp7973
sI7935
(dp7974
sI7936
(dp7975
sI7937
(dp7976
sI7938
(dp7977
sI7939
(dp7978
sI7940
(dp7979
sI7941
(dp7980
sI7942
(dp7981
sI7943
(dp7982
sI7944
(dp7983
sI7945
(dp7984
sI7946
(dp7985
sI7947
(dp7986
sI7948
(dp7987
sI7949
(dp7988
sI7950
(dp7989
sI7951
(dp7990
sI7952
(dp7991
sI7953
(dp7992
sI7954
(dp7993
sI7955
(dp7994
sI7956
(dp7995
sI7957
(dp7996
sI7958
(dp7997
sI7959
(dp7998
sI7960
(dp7999
sI7961
(dp8000
sI7962
(dp8001
sI7963
(dp8002
sI7964
(dp8003
sI7965
(dp8004
sI7966
(dp8005
sI7967
(dp8006
sI7968
(dp8007
sI7969
(dp8008
sI7970
(dp8009
sI7971
(dp8010
sI7972
(dp8011
sI7973
(dp8012
sI7974
(dp8013
sI7975
(dp8014
sI7976
(dp8015
sI7977
(dp8016
sI7978
(dp8017
sI7979
(dp8018
sI7980
(dp8019
sI7981
(dp8020
sI7982
(dp8021
sI7983
(dp8022
sI7984
(dp8023
sI7985
(dp8024
sI7986
(dp8025
sI7987
(dp8026
sI7988
(dp8027
sI7989
(dp8028
sI7990
(dp8029
sI7991
(dp8030
sI7992
(dp8031
sI7993
(dp8032
sI7994
(dp8033
sI7995
(dp8034
sI7996
(dp8035
sI7997
(dp8036
sI7998
(dp8037
sI7999
(dp8038
sI8000
(dp8039
S'train_reconstruct_error'
p8040
g5
(g6
(I0
tS'b'
tRp8041
(I1
(tg9
I00
S'\x0e\xc1nB'
tbssI8001
(dp8042
sI8002
(dp8043
sI8003
(dp8044
sI8004
(dp8045
sI8005
(dp8046
sI8006
(dp8047
sI8007
(dp8048
sI8008
(dp8049
sI8009
(dp8050
sI8010
(dp8051
sI8011
(dp8052
sI8012
(dp8053
sI8013
(dp8054
sI8014
(dp8055
sI8015
(dp8056
sI8016
(dp8057
sI8017
(dp8058
sI8018
(dp8059
sI8019
(dp8060
sI8020
(dp8061
sI8021
(dp8062
sI8022
(dp8063
sI8023
(dp8064
sI8024
(dp8065
sI8025
(dp8066
sI8026
(dp8067
sI8027
(dp8068
sI8028
(dp8069
sI8029
(dp8070
sI8030
(dp8071
sI8031
(dp8072
sI8032
(dp8073
sI8033
(dp8074
sI8034
(dp8075
sI8035
(dp8076
sI8036
(dp8077
sI8037
(dp8078
sI8038
(dp8079
sI8039
(dp8080
sI8040
(dp8081
sI8041
(dp8082
sI8042
(dp8083
sI8043
(dp8084
sI8044
(dp8085
sI8045
(dp8086
sI8046
(dp8087
sI8047
(dp8088
sI8048
(dp8089
sI8049
(dp8090
sI8050
(dp8091
sI8051
(dp8092
sI8052
(dp8093
sI8053
(dp8094
sI8054
(dp8095
sI8055
(dp8096
sI8056
(dp8097
sI8057
(dp8098
sI8058
(dp8099
sI8059
(dp8100
sI8060
(dp8101
sI8061
(dp8102
sI8062
(dp8103
sI8063
(dp8104
sI8064
(dp8105
sI8065
(dp8106
sI8066
(dp8107
sI8067
(dp8108
sI8068
(dp8109
sI8069
(dp8110
sI8070
(dp8111
sI8071
(dp8112
sI8072
(dp8113
sI8073
(dp8114
sI8074
(dp8115
sI8075
(dp8116
sI8076
(dp8117
sI8077
(dp8118
sI8078
(dp8119
sI8079
(dp8120
sI8080
(dp8121
sI8081
(dp8122
sI8082
(dp8123
sI8083
(dp8124
sI8084
(dp8125
sI8085
(dp8126
sI8086
(dp8127
sI8087
(dp8128
sI8088
(dp8129
sI8089
(dp8130
sI8090
(dp8131
sI8091
(dp8132
sI8092
(dp8133
sI8093
(dp8134
sI8094
(dp8135
sI8095
(dp8136
sI8096
(dp8137
sI8097
(dp8138
sI8098
(dp8139
sI8099
(dp8140
sI8100
(dp8141
sI8101
(dp8142
sI8102
(dp8143
sI8103
(dp8144
sI8104
(dp8145
sI8105
(dp8146
sI8106
(dp8147
sI8107
(dp8148
sI8108
(dp8149
sI8109
(dp8150
sI8110
(dp8151
sI8111
(dp8152
sI8112
(dp8153
sI8113
(dp8154
sI8114
(dp8155
sI8115
(dp8156
sI8116
(dp8157
sI8117
(dp8158
sI8118
(dp8159
sI8119
(dp8160
sI8120
(dp8161
sI8121
(dp8162
sI8122
(dp8163
sI8123
(dp8164
sI8124
(dp8165
sI8125
(dp8166
sI8126
(dp8167
sI8127
(dp8168
sI8128
(dp8169
sI8129
(dp8170
sI8130
(dp8171
sI8131
(dp8172
sI8132
(dp8173
sI8133
(dp8174
sI8134
(dp8175
sI8135
(dp8176
sI8136
(dp8177
sI8137
(dp8178
sI8138
(dp8179
sI8139
(dp8180
sI8140
(dp8181
sI8141
(dp8182
sI8142
(dp8183
sI8143
(dp8184
sI8144
(dp8185
sI8145
(dp8186
sI8146
(dp8187
sI8147
(dp8188
sI8148
(dp8189
sI8149
(dp8190
sI8150
(dp8191
sI8151
(dp8192
sI8152
(dp8193
sI8153
(dp8194
sI8154
(dp8195
sI8155
(dp8196
sI8156
(dp8197
sI8157
(dp8198
sI8158
(dp8199
sI8159
(dp8200
sI8160
(dp8201
sI8161
(dp8202
sI8162
(dp8203
sI8163
(dp8204
sI8164
(dp8205
sI8165
(dp8206
sI8166
(dp8207
sI8167
(dp8208
sI8168
(dp8209
sI8169
(dp8210
sI8170
(dp8211
sI8171
(dp8212
sI8172
(dp8213
sI8173
(dp8214
sI8174
(dp8215
sI8175
(dp8216
sI8176
(dp8217
sI8177
(dp8218
sI8178
(dp8219
sI8179
(dp8220
sI8180
(dp8221
sI8181
(dp8222
sI8182
(dp8223
sI8183
(dp8224
sI8184
(dp8225
sI8185
(dp8226
sI8186
(dp8227
sI8187
(dp8228
sI8188
(dp8229
sI8189
(dp8230
sI8190
(dp8231
sI8191
(dp8232
sI8192
(dp8233
sI8193
(dp8234
sI8194
(dp8235
sI8195
(dp8236
sI8196
(dp8237
sI8197
(dp8238
sI8198
(dp8239
sI8199
(dp8240
sI8200
(dp8241
sI8201
(dp8242
sI8202
(dp8243
sI8203
(dp8244
sI8204
(dp8245
sI8205
(dp8246
sI8206
(dp8247
sI8207
(dp8248
sI8208
(dp8249
sI8209
(dp8250
sI8210
(dp8251
sI8211
(dp8252
sI8212
(dp8253
sI8213
(dp8254
sI8214
(dp8255
sI8215
(dp8256
sI8216
(dp8257
sI8217
(dp8258
sI8218
(dp8259
sI8219
(dp8260
sI8220
(dp8261
sI8221
(dp8262
sI8222
(dp8263
sI8223
(dp8264
sI8224
(dp8265
sI8225
(dp8266
sI8226
(dp8267
sI8227
(dp8268
sI8228
(dp8269
sI8229
(dp8270
sI8230
(dp8271
sI8231
(dp8272
sI8232
(dp8273
sI8233
(dp8274
sI8234
(dp8275
sI8235
(dp8276
sI8236
(dp8277
sI8237
(dp8278
sI8238
(dp8279
sI8239
(dp8280
sI8240
(dp8281
sI8241
(dp8282
sI8242
(dp8283
sI8243
(dp8284
sI8244
(dp8285
sI8245
(dp8286
sI8246
(dp8287
sI8247
(dp8288
sI8248
(dp8289
sI8249
(dp8290
sI8250
(dp8291
sI8251
(dp8292
sI8252
(dp8293
sI8253
(dp8294
sI8254
(dp8295
sI8255
(dp8296
sI8256
(dp8297
sI8257
(dp8298
sI8258
(dp8299
sI8259
(dp8300
sI8260
(dp8301
sI8261
(dp8302
sI8262
(dp8303
sI8263
(dp8304
sI8264
(dp8305
sI8265
(dp8306
sI8266
(dp8307
sI8267
(dp8308
sI8268
(dp8309
sI8269
(dp8310
sI8270
(dp8311
sI8271
(dp8312
sI8272
(dp8313
sI8273
(dp8314
sI8274
(dp8315
sI8275
(dp8316
sI8276
(dp8317
sI8277
(dp8318
sI8278
(dp8319
sI8279
(dp8320
sI8280
(dp8321
sI8281
(dp8322
sI8282
(dp8323
sI8283
(dp8324
sI8284
(dp8325
sI8285
(dp8326
sI8286
(dp8327
sI8287
(dp8328
sI8288
(dp8329
sI8289
(dp8330
sI8290
(dp8331
sI8291
(dp8332
sI8292
(dp8333
sI8293
(dp8334
sI8294
(dp8335
sI8295
(dp8336
sI8296
(dp8337
sI8297
(dp8338
sI8298
(dp8339
sI8299
(dp8340
sI8300
(dp8341
sI8301
(dp8342
sI8302
(dp8343
sI8303
(dp8344
sI8304
(dp8345
sI8305
(dp8346
sI8306
(dp8347
sI8307
(dp8348
sI8308
(dp8349
sI8309
(dp8350
sI8310
(dp8351
sI8311
(dp8352
sI8312
(dp8353
sI8313
(dp8354
sI8314
(dp8355
sI8315
(dp8356
sI8316
(dp8357
sI8317
(dp8358
sI8318
(dp8359
sI8319
(dp8360
sI8320
(dp8361
sI8321
(dp8362
sI8322
(dp8363
sI8323
(dp8364
sI8324
(dp8365
sI8325
(dp8366
sI8326
(dp8367
sI8327
(dp8368
sI8328
(dp8369
sI8329
(dp8370
sI8330
(dp8371
sI8331
(dp8372
sI8332
(dp8373
sI8333
(dp8374
sI8334
(dp8375
sI8335
(dp8376
sI8336
(dp8377
sI8337
(dp8378
sI8338
(dp8379
sI8339
(dp8380
sI8340
(dp8381
sI8341
(dp8382
sI8342
(dp8383
sI8343
(dp8384
sI8344
(dp8385
sI8345
(dp8386
sI8346
(dp8387
sI8347
(dp8388
sI8348
(dp8389
sI8349
(dp8390
sI8350
(dp8391
sI8351
(dp8392
sI8352
(dp8393
sI8353
(dp8394
sI8354
(dp8395
sI8355
(dp8396
sI8356
(dp8397
sI8357
(dp8398
sI8358
(dp8399
sI8359
(dp8400
sI8360
(dp8401
sI8361
(dp8402
sI8362
(dp8403
sI8363
(dp8404
sI8364
(dp8405
sI8365
(dp8406
sI8366
(dp8407
sI8367
(dp8408
sI8368
(dp8409
sI8369
(dp8410
sI8370
(dp8411
sI8371
(dp8412
sI8372
(dp8413
sI8373
(dp8414
sI8374
(dp8415
sI8375
(dp8416
sI8376
(dp8417
sI8377
(dp8418
sI8378
(dp8419
sI8379
(dp8420
sI8380
(dp8421
sI8381
(dp8422
sI8382
(dp8423
sI8383
(dp8424
sI8384
(dp8425
sI8385
(dp8426
sI8386
(dp8427
sI8387
(dp8428
sI8388
(dp8429
sI8389
(dp8430
sI8390
(dp8431
sI8391
(dp8432
sI8392
(dp8433
sI8393
(dp8434
sI8394
(dp8435
sI8395
(dp8436
sI8396
(dp8437
sI8397
(dp8438
sI8398
(dp8439
sI8399
(dp8440
sI8400
(dp8441
sI8401
(dp8442
sI8402
(dp8443
sI8403
(dp8444
sI8404
(dp8445
sI8405
(dp8446
sI8406
(dp8447
sI8407
(dp8448
sI8408
(dp8449
sI8409
(dp8450
sI8410
(dp8451
sI8411
(dp8452
sI8412
(dp8453
sI8413
(dp8454
sI8414
(dp8455
sI8415
(dp8456
sI8416
(dp8457
sI8417
(dp8458
sI8418
(dp8459
sI8419
(dp8460
sI8420
(dp8461
sI8421
(dp8462
sI8422
(dp8463
sI8423
(dp8464
sI8424
(dp8465
sI8425
(dp8466
sI8426
(dp8467
sI8427
(dp8468
sI8428
(dp8469
sI8429
(dp8470
sI8430
(dp8471
sI8431
(dp8472
sI8432
(dp8473
sI8433
(dp8474
sI8434
(dp8475
sI8435
(dp8476
sI8436
(dp8477
sI8437
(dp8478
sI8438
(dp8479
sI8439
(dp8480
sI8440
(dp8481
sI8441
(dp8482
sI8442
(dp8483
sI8443
(dp8484
sI8444
(dp8485
sI8445
(dp8486
sI8446
(dp8487
sI8447
(dp8488
sI8448
(dp8489
sI8449
(dp8490
sI8450
(dp8491
sI8451
(dp8492
sI8452
(dp8493
sI8453
(dp8494
sI8454
(dp8495
sI8455
(dp8496
sI8456
(dp8497
sI8457
(dp8498
sI8458
(dp8499
sI8459
(dp8500
sI8460
(dp8501
sI8461
(dp8502
sI8462
(dp8503
sI8463
(dp8504
sI8464
(dp8505
sI8465
(dp8506
sI8466
(dp8507
sI8467
(dp8508
sI8468
(dp8509
sI8469
(dp8510
sI8470
(dp8511
sI8471
(dp8512
sI8472
(dp8513
sI8473
(dp8514
sI8474
(dp8515
sI8475
(dp8516
sI8476
(dp8517
sI8477
(dp8518
sI8478
(dp8519
sI8479
(dp8520
sI8480
(dp8521
sI8481
(dp8522
sI8482
(dp8523
sI8483
(dp8524
sI8484
(dp8525
sI8485
(dp8526
sI8486
(dp8527
sI8487
(dp8528
sI8488
(dp8529
sI8489
(dp8530
sI8490
(dp8531
sI8491
(dp8532
sI8492
(dp8533
sI8493
(dp8534
sI8494
(dp8535
sI8495
(dp8536
sI8496
(dp8537
sI8497
(dp8538
sI8498
(dp8539
sI8499
(dp8540
sI8500
(dp8541
S'train_reconstruct_error'
p8542
g5
(g6
(I0
tS'b'
tRp8543
(I1
(tg9
I00
S'\xfb\x9amB'
tbssI8501
(dp8544
sI8502
(dp8545
sI8503
(dp8546
sI8504
(dp8547
sI8505
(dp8548
sI8506
(dp8549
sI8507
(dp8550
sI8508
(dp8551
sI8509
(dp8552
sI8510
(dp8553
sI8511
(dp8554
sI8512
(dp8555
sI8513
(dp8556
sI8514
(dp8557
sI8515
(dp8558
sI8516
(dp8559
sI8517
(dp8560
sI8518
(dp8561
sI8519
(dp8562
sI8520
(dp8563
sI8521
(dp8564
sI8522
(dp8565
sI8523
(dp8566
sI8524
(dp8567
sI8525
(dp8568
sI8526
(dp8569
sI8527
(dp8570
sI8528
(dp8571
sI8529
(dp8572
sI8530
(dp8573
sI8531
(dp8574
sI8532
(dp8575
sI8533
(dp8576
sI8534
(dp8577
sI8535
(dp8578
sI8536
(dp8579
sI8537
(dp8580
sI8538
(dp8581
sI8539
(dp8582
sI8540
(dp8583
sI8541
(dp8584
sI8542
(dp8585
sI8543
(dp8586
sI8544
(dp8587
sI8545
(dp8588
sI8546
(dp8589
sI8547
(dp8590
sI8548
(dp8591
sI8549
(dp8592
sI8550
(dp8593
sI8551
(dp8594
sI8552
(dp8595
sI8553
(dp8596
sI8554
(dp8597
sI8555
(dp8598
sI8556
(dp8599
sI8557
(dp8600
sI8558
(dp8601
sI8559
(dp8602
sI8560
(dp8603
sI8561
(dp8604
sI8562
(dp8605
sI8563
(dp8606
sI8564
(dp8607
sI8565
(dp8608
sI8566
(dp8609
sI8567
(dp8610
sI8568
(dp8611
sI8569
(dp8612
sI8570
(dp8613
sI8571
(dp8614
sI8572
(dp8615
sI8573
(dp8616
sI8574
(dp8617
sI8575
(dp8618
sI8576
(dp8619
sI8577
(dp8620
sI8578
(dp8621
sI8579
(dp8622
sI8580
(dp8623
sI8581
(dp8624
sI8582
(dp8625
sI8583
(dp8626
sI8584
(dp8627
sI8585
(dp8628
sI8586
(dp8629
sI8587
(dp8630
sI8588
(dp8631
sI8589
(dp8632
sI8590
(dp8633
sI8591
(dp8634
sI8592
(dp8635
sI8593
(dp8636
sI8594
(dp8637
sI8595
(dp8638
sI8596
(dp8639
sI8597
(dp8640
sI8598
(dp8641
sI8599
(dp8642
sI8600
(dp8643
sI8601
(dp8644
sI8602
(dp8645
sI8603
(dp8646
sI8604
(dp8647
sI8605
(dp8648
sI8606
(dp8649
sI8607
(dp8650
sI8608
(dp8651
sI8609
(dp8652
sI8610
(dp8653
sI8611
(dp8654
sI8612
(dp8655
sI8613
(dp8656
sI8614
(dp8657
sI8615
(dp8658
sI8616
(dp8659
sI8617
(dp8660
sI8618
(dp8661
sI8619
(dp8662
sI8620
(dp8663
sI8621
(dp8664
sI8622
(dp8665
sI8623
(dp8666
sI8624
(dp8667
sI8625
(dp8668
sI8626
(dp8669
sI8627
(dp8670
sI8628
(dp8671
sI8629
(dp8672
sI8630
(dp8673
sI8631
(dp8674
sI8632
(dp8675
sI8633
(dp8676
sI8634
(dp8677
sI8635
(dp8678
sI8636
(dp8679
sI8637
(dp8680
sI8638
(dp8681
sI8639
(dp8682
sI8640
(dp8683
sI8641
(dp8684
sI8642
(dp8685
sI8643
(dp8686
sI8644
(dp8687
sI8645
(dp8688
sI8646
(dp8689
sI8647
(dp8690
sI8648
(dp8691
sI8649
(dp8692
sI8650
(dp8693
sI8651
(dp8694
sI8652
(dp8695
sI8653
(dp8696
sI8654
(dp8697
sI8655
(dp8698
sI8656
(dp8699
sI8657
(dp8700
sI8658
(dp8701
sI8659
(dp8702
sI8660
(dp8703
sI8661
(dp8704
sI8662
(dp8705
sI8663
(dp8706
sI8664
(dp8707
sI8665
(dp8708
sI8666
(dp8709
sI8667
(dp8710
sI8668
(dp8711
sI8669
(dp8712
sI8670
(dp8713
sI8671
(dp8714
sI8672
(dp8715
sI8673
(dp8716
sI8674
(dp8717
sI8675
(dp8718
sI8676
(dp8719
sI8677
(dp8720
sI8678
(dp8721
sI8679
(dp8722
sI8680
(dp8723
sI8681
(dp8724
sI8682
(dp8725
sI8683
(dp8726
sI8684
(dp8727
sI8685
(dp8728
sI8686
(dp8729
sI8687
(dp8730
sI8688
(dp8731
sI8689
(dp8732
sI8690
(dp8733
sI8691
(dp8734
sI8692
(dp8735
sI8693
(dp8736
sI8694
(dp8737
sI8695
(dp8738
sI8696
(dp8739
sI8697
(dp8740
sI8698
(dp8741
sI8699
(dp8742
sI8700
(dp8743
sI8701
(dp8744
sI8702
(dp8745
sI8703
(dp8746
sI8704
(dp8747
sI8705
(dp8748
sI8706
(dp8749
sI8707
(dp8750
sI8708
(dp8751
sI8709
(dp8752
sI8710
(dp8753
sI8711
(dp8754
sI8712
(dp8755
sI8713
(dp8756
sI8714
(dp8757
sI8715
(dp8758
sI8716
(dp8759
sI8717
(dp8760
sI8718
(dp8761
sI8719
(dp8762
sI8720
(dp8763
sI8721
(dp8764
sI8722
(dp8765
sI8723
(dp8766
sI8724
(dp8767
sI8725
(dp8768
sI8726
(dp8769
sI8727
(dp8770
sI8728
(dp8771
sI8729
(dp8772
sI8730
(dp8773
sI8731
(dp8774
sI8732
(dp8775
sI8733
(dp8776
sI8734
(dp8777
sI8735
(dp8778
sI8736
(dp8779
sI8737
(dp8780
sI8738
(dp8781
sI8739
(dp8782
sI8740
(dp8783
sI8741
(dp8784
sI8742
(dp8785
sI8743
(dp8786
sI8744
(dp8787
sI8745
(dp8788
sI8746
(dp8789
sI8747
(dp8790
sI8748
(dp8791
sI8749
(dp8792
sI8750
(dp8793
sI8751
(dp8794
sI8752
(dp8795
sI8753
(dp8796
sI8754
(dp8797
sI8755
(dp8798
sI8756
(dp8799
sI8757
(dp8800
sI8758
(dp8801
sI8759
(dp8802
sI8760
(dp8803
sI8761
(dp8804
sI8762
(dp8805
sI8763
(dp8806
sI8764
(dp8807
sI8765
(dp8808
sI8766
(dp8809
sI8767
(dp8810
sI8768
(dp8811
sI8769
(dp8812
sI8770
(dp8813
sI8771
(dp8814
sI8772
(dp8815
sI8773
(dp8816
sI8774
(dp8817
sI8775
(dp8818
sI8776
(dp8819
sI8777
(dp8820
sI8778
(dp8821
sI8779
(dp8822
sI8780
(dp8823
sI8781
(dp8824
sI8782
(dp8825
sI8783
(dp8826
sI8784
(dp8827
sI8785
(dp8828
sI8786
(dp8829
sI8787
(dp8830
sI8788
(dp8831
sI8789
(dp8832
sI8790
(dp8833
sI8791
(dp8834
sI8792
(dp8835
sI8793
(dp8836
sI8794
(dp8837
sI8795
(dp8838
sI8796
(dp8839
sI8797
(dp8840
sI8798
(dp8841
sI8799
(dp8842
sI8800
(dp8843
sI8801
(dp8844
sI8802
(dp8845
sI8803
(dp8846
sI8804
(dp8847
sI8805
(dp8848
sI8806
(dp8849
sI8807
(dp8850
sI8808
(dp8851
sI8809
(dp8852
sI8810
(dp8853
sI8811
(dp8854
sI8812
(dp8855
sI8813
(dp8856
sI8814
(dp8857
sI8815
(dp8858
sI8816
(dp8859
sI8817
(dp8860
sI8818
(dp8861
sI8819
(dp8862
sI8820
(dp8863
sI8821
(dp8864
sI8822
(dp8865
sI8823
(dp8866
sI8824
(dp8867
sI8825
(dp8868
sI8826
(dp8869
sI8827
(dp8870
sI8828
(dp8871
sI8829
(dp8872
sI8830
(dp8873
sI8831
(dp8874
sI8832
(dp8875
sI8833
(dp8876
sI8834
(dp8877
sI8835
(dp8878
sI8836
(dp8879
sI8837
(dp8880
sI8838
(dp8881
sI8839
(dp8882
sI8840
(dp8883
sI8841
(dp8884
sI8842
(dp8885
sI8843
(dp8886
sI8844
(dp8887
sI8845
(dp8888
sI8846
(dp8889
sI8847
(dp8890
sI8848
(dp8891
sI8849
(dp8892
sI8850
(dp8893
sI8851
(dp8894
sI8852
(dp8895
sI8853
(dp8896
sI8854
(dp8897
sI8855
(dp8898
sI8856
(dp8899
sI8857
(dp8900
sI8858
(dp8901
sI8859
(dp8902
sI8860
(dp8903
sI8861
(dp8904
sI8862
(dp8905
sI8863
(dp8906
sI8864
(dp8907
sI8865
(dp8908
sI8866
(dp8909
sI8867
(dp8910
sI8868
(dp8911
sI8869
(dp8912
sI8870
(dp8913
sI8871
(dp8914
sI8872
(dp8915
sI8873
(dp8916
sI8874
(dp8917
sI8875
(dp8918
sI8876
(dp8919
sI8877
(dp8920
sI8878
(dp8921
sI8879
(dp8922
sI8880
(dp8923
sI8881
(dp8924
sI8882
(dp8925
sI8883
(dp8926
sI8884
(dp8927
sI8885
(dp8928
sI8886
(dp8929
sI8887
(dp8930
sI8888
(dp8931
sI8889
(dp8932
sI8890
(dp8933
sI8891
(dp8934
sI8892
(dp8935
sI8893
(dp8936
sI8894
(dp8937
sI8895
(dp8938
sI8896
(dp8939
sI8897
(dp8940
sI8898
(dp8941
sI8899
(dp8942
sI8900
(dp8943
sI8901
(dp8944
sI8902
(dp8945
sI8903
(dp8946
sI8904
(dp8947
sI8905
(dp8948
sI8906
(dp8949
sI8907
(dp8950
sI8908
(dp8951
sI8909
(dp8952
sI8910
(dp8953
sI8911
(dp8954
sI8912
(dp8955
sI8913
(dp8956
sI8914
(dp8957
sI8915
(dp8958
sI8916
(dp8959
sI8917
(dp8960
sI8918
(dp8961
sI8919
(dp8962
sI8920
(dp8963
sI8921
(dp8964
sI8922
(dp8965
sI8923
(dp8966
sI8924
(dp8967
sI8925
(dp8968
sI8926
(dp8969
sI8927
(dp8970
sI8928
(dp8971
sI8929
(dp8972
sI8930
(dp8973
sI8931
(dp8974
sI8932
(dp8975
sI8933
(dp8976
sI8934
(dp8977
sI8935
(dp8978
sI8936
(dp8979
sI8937
(dp8980
sI8938
(dp8981
sI8939
(dp8982
sI8940
(dp8983
sI8941
(dp8984
sI8942
(dp8985
sI8943
(dp8986
sI8944
(dp8987
sI8945
(dp8988
sI8946
(dp8989
sI8947
(dp8990
sI8948
(dp8991
sI8949
(dp8992
sI8950
(dp8993
sI8951
(dp8994
sI8952
(dp8995
sI8953
(dp8996
sI8954
(dp8997
sI8955
(dp8998
sI8956
(dp8999
sI8957
(dp9000
sI8958
(dp9001
sI8959
(dp9002
sI8960
(dp9003
sI8961
(dp9004
sI8962
(dp9005
sI8963
(dp9006
sI8964
(dp9007
sI8965
(dp9008
sI8966
(dp9009
sI8967
(dp9010
sI8968
(dp9011
sI8969
(dp9012
sI8970
(dp9013
sI8971
(dp9014
sI8972
(dp9015
sI8973
(dp9016
sI8974
(dp9017
sI8975
(dp9018
sI8976
(dp9019
sI8977
(dp9020
sI8978
(dp9021
sI8979
(dp9022
sI8980
(dp9023
sI8981
(dp9024
sI8982
(dp9025
sI8983
(dp9026
sI8984
(dp9027
sI8985
(dp9028
sI8986
(dp9029
sI8987
(dp9030
sI8988
(dp9031
sI8989
(dp9032
sI8990
(dp9033
sI8991
(dp9034
sI8992
(dp9035
sI8993
(dp9036
sI8994
(dp9037
sI8995
(dp9038
sI8996
(dp9039
sI8997
(dp9040
sI8998
(dp9041
sI8999
(dp9042
sI9000
(dp9043
S'train_reconstruct_error'
p9044
g5
(g6
(I0
tS'b'
tRp9045
(I1
(tg9
I00
S'\xc2TdB'
tbssI9001
(dp9046
sI9002
(dp9047
sI9003
(dp9048
sI9004
(dp9049
sI9005
(dp9050
sI9006
(dp9051
sI9007
(dp9052
sI9008
(dp9053
sI9009
(dp9054
sI9010
(dp9055
sI9011
(dp9056
sI9012
(dp9057
sI9013
(dp9058
sI9014
(dp9059
sI9015
(dp9060
sI9016
(dp9061
sI9017
(dp9062
sI9018
(dp9063
sI9019
(dp9064
sI9020
(dp9065
sI9021
(dp9066
sI9022
(dp9067
sI9023
(dp9068
sI9024
(dp9069
sI9025
(dp9070
sI9026
(dp9071
sI9027
(dp9072
sI9028
(dp9073
sI9029
(dp9074
sI9030
(dp9075
sI9031
(dp9076
sI9032
(dp9077
sI9033
(dp9078
sI9034
(dp9079
sI9035
(dp9080
sI9036
(dp9081
sI9037
(dp9082
sI9038
(dp9083
sI9039
(dp9084
sI9040
(dp9085
sI9041
(dp9086
sI9042
(dp9087
sI9043
(dp9088
sI9044
(dp9089
sI9045
(dp9090
sI9046
(dp9091
sI9047
(dp9092
sI9048
(dp9093
sI9049
(dp9094
sI9050
(dp9095
sI9051
(dp9096
sI9052
(dp9097
sI9053
(dp9098
sI9054
(dp9099
sI9055
(dp9100
sI9056
(dp9101
sI9057
(dp9102
sI9058
(dp9103
sI9059
(dp9104
sI9060
(dp9105
sI9061
(dp9106
sI9062
(dp9107
sI9063
(dp9108
sI9064
(dp9109
sI9065
(dp9110
sI9066
(dp9111
sI9067
(dp9112
sI9068
(dp9113
sI9069
(dp9114
sI9070
(dp9115
sI9071
(dp9116
sI9072
(dp9117
sI9073
(dp9118
sI9074
(dp9119
sI9075
(dp9120
sI9076
(dp9121
sI9077
(dp9122
sI9078
(dp9123
sI9079
(dp9124
sI9080
(dp9125
sI9081
(dp9126
sI9082
(dp9127
sI9083
(dp9128
sI9084
(dp9129
sI9085
(dp9130
sI9086
(dp9131
sI9087
(dp9132
sI9088
(dp9133
sI9089
(dp9134
sI9090
(dp9135
sI9091
(dp9136
sI9092
(dp9137
sI9093
(dp9138
sI9094
(dp9139
sI9095
(dp9140
sI9096
(dp9141
sI9097
(dp9142
sI9098
(dp9143
sI9099
(dp9144
sI9100
(dp9145
sI9101
(dp9146
sI9102
(dp9147
sI9103
(dp9148
sI9104
(dp9149
sI9105
(dp9150
sI9106
(dp9151
sI9107
(dp9152
sI9108
(dp9153
sI9109
(dp9154
sI9110
(dp9155
sI9111
(dp9156
sI9112
(dp9157
sI9113
(dp9158
sI9114
(dp9159
sI9115
(dp9160
sI9116
(dp9161
sI9117
(dp9162
sI9118
(dp9163
sI9119
(dp9164
sI9120
(dp9165
sI9121
(dp9166
sI9122
(dp9167
sI9123
(dp9168
sI9124
(dp9169
sI9125
(dp9170
sI9126
(dp9171
sI9127
(dp9172
sI9128
(dp9173
sI9129
(dp9174
sI9130
(dp9175
sI9131
(dp9176
sI9132
(dp9177
sI9133
(dp9178
sI9134
(dp9179
sI9135
(dp9180
sI9136
(dp9181
sI9137
(dp9182
sI9138
(dp9183
sI9139
(dp9184
sI9140
(dp9185
sI9141
(dp9186
sI9142
(dp9187
sI9143
(dp9188
sI9144
(dp9189
sI9145
(dp9190
sI9146
(dp9191
sI9147
(dp9192
sI9148
(dp9193
sI9149
(dp9194
sI9150
(dp9195
sI9151
(dp9196
sI9152
(dp9197
sI9153
(dp9198
sI9154
(dp9199
sI9155
(dp9200
sI9156
(dp9201
sI9157
(dp9202
sI9158
(dp9203
sI9159
(dp9204
sI9160
(dp9205
sI9161
(dp9206
sI9162
(dp9207
sI9163
(dp9208
sI9164
(dp9209
sI9165
(dp9210
sI9166
(dp9211
sI9167
(dp9212
sI9168
(dp9213
sI9169
(dp9214
sI9170
(dp9215
sI9171
(dp9216
sI9172
(dp9217
sI9173
(dp9218
sI9174
(dp9219
sI9175
(dp9220
sI9176
(dp9221
sI9177
(dp9222
sI9178
(dp9223
sI9179
(dp9224
sI9180
(dp9225
sI9181
(dp9226
sI9182
(dp9227
sI9183
(dp9228
sI9184
(dp9229
sI9185
(dp9230
sI9186
(dp9231
sI9187
(dp9232
sI9188
(dp9233
sI9189
(dp9234
sI9190
(dp9235
sI9191
(dp9236
sI9192
(dp9237
sI9193
(dp9238
sI9194
(dp9239
sI9195
(dp9240
sI9196
(dp9241
sI9197
(dp9242
sI9198
(dp9243
sI9199
(dp9244
sI9200
(dp9245
sI9201
(dp9246
sI9202
(dp9247
sI9203
(dp9248
sI9204
(dp9249
sI9205
(dp9250
sI9206
(dp9251
sI9207
(dp9252
sI9208
(dp9253
sI9209
(dp9254
sI9210
(dp9255
sI9211
(dp9256
sI9212
(dp9257
sI9213
(dp9258
sI9214
(dp9259
sI9215
(dp9260
sI9216
(dp9261
sI9217
(dp9262
sI9218
(dp9263
sI9219
(dp9264
sI9220
(dp9265
sI9221
(dp9266
sI9222
(dp9267
sI9223
(dp9268
sI9224
(dp9269
sI9225
(dp9270
sI9226
(dp9271
sI9227
(dp9272
sI9228
(dp9273
sI9229
(dp9274
sI9230
(dp9275
sI9231
(dp9276
sI9232
(dp9277
sI9233
(dp9278
sI9234
(dp9279
sI9235
(dp9280
sI9236
(dp9281
sI9237
(dp9282
sI9238
(dp9283
sI9239
(dp9284
sI9240
(dp9285
sI9241
(dp9286
sI9242
(dp9287
sI9243
(dp9288
sI9244
(dp9289
sI9245
(dp9290
sI9246
(dp9291
sI9247
(dp9292
sI9248
(dp9293
sI9249
(dp9294
sI9250
(dp9295
sI9251
(dp9296
sI9252
(dp9297
sI9253
(dp9298
sI9254
(dp9299
sI9255
(dp9300
sI9256
(dp9301
sI9257
(dp9302
sI9258
(dp9303
sI9259
(dp9304
sI9260
(dp9305
sI9261
(dp9306
sI9262
(dp9307
sI9263
(dp9308
sI9264
(dp9309
sI9265
(dp9310
sI9266
(dp9311
sI9267
(dp9312
sI9268
(dp9313
sI9269
(dp9314
sI9270
(dp9315
sI9271
(dp9316
sI9272
(dp9317
sI9273
(dp9318
sI9274
(dp9319
sI9275
(dp9320
sI9276
(dp9321
sI9277
(dp9322
sI9278
(dp9323
sI9279
(dp9324
sI9280
(dp9325
sI9281
(dp9326
sI9282
(dp9327
sI9283
(dp9328
sI9284
(dp9329
sI9285
(dp9330
sI9286
(dp9331
sI9287
(dp9332
sI9288
(dp9333
sI9289
(dp9334
sI9290
(dp9335
sI9291
(dp9336
sI9292
(dp9337
sI9293
(dp9338
sI9294
(dp9339
sI9295
(dp9340
sI9296
(dp9341
sI9297
(dp9342
sI9298
(dp9343
sI9299
(dp9344
sI9300
(dp9345
sI9301
(dp9346
sI9302
(dp9347
sI9303
(dp9348
sI9304
(dp9349
sI9305
(dp9350
sI9306
(dp9351
sI9307
(dp9352
sI9308
(dp9353
sI9309
(dp9354
sI9310
(dp9355
sI9311
(dp9356
sI9312
(dp9357
sI9313
(dp9358
sI9314
(dp9359
sI9315
(dp9360
sI9316
(dp9361
sI9317
(dp9362
sI9318
(dp9363
sI9319
(dp9364
sI9320
(dp9365
sI9321
(dp9366
sI9322
(dp9367
sI9323
(dp9368
sI9324
(dp9369
sI9325
(dp9370
sI9326
(dp9371
sI9327
(dp9372
sI9328
(dp9373
sI9329
(dp9374
sI9330
(dp9375
sI9331
(dp9376
sI9332
(dp9377
sI9333
(dp9378
sI9334
(dp9379
sI9335
(dp9380
sI9336
(dp9381
sI9337
(dp9382
sI9338
(dp9383
sI9339
(dp9384
sI9340
(dp9385
sI9341
(dp9386
sI9342
(dp9387
sI9343
(dp9388
sI9344
(dp9389
sI9345
(dp9390
sI9346
(dp9391
sI9347
(dp9392
sI9348
(dp9393
sI9349
(dp9394
sI9350
(dp9395
sI9351
(dp9396
sI9352
(dp9397
sI9353
(dp9398
sI9354
(dp9399
sI9355
(dp9400
sI9356
(dp9401
sI9357
(dp9402
sI9358
(dp9403
sI9359
(dp9404
sI9360
(dp9405
sI9361
(dp9406
sI9362
(dp9407
sI9363
(dp9408
sI9364
(dp9409
sI9365
(dp9410
sI9366
(dp9411
sI9367
(dp9412
sI9368
(dp9413
sI9369
(dp9414
sI9370
(dp9415
sI9371
(dp9416
sI9372
(dp9417
sI9373
(dp9418
sI9374
(dp9419
sI9375
(dp9420
sI9376
(dp9421
sI9377
(dp9422
sI9378
(dp9423
sI9379
(dp9424
sI9380
(dp9425
sI9381
(dp9426
sI9382
(dp9427
sI9383
(dp9428
sI9384
(dp9429
sI9385
(dp9430
sI9386
(dp9431
sI9387
(dp9432
sI9388
(dp9433
sI9389
(dp9434
sI9390
(dp9435
sI9391
(dp9436
sI9392
(dp9437
sI9393
(dp9438
sI9394
(dp9439
sI9395
(dp9440
sI9396
(dp9441
sI9397
(dp9442
sI9398
(dp9443
sI9399
(dp9444
sI9400
(dp9445
sI9401
(dp9446
sI9402
(dp9447
sI9403
(dp9448
sI9404
(dp9449
sI9405
(dp9450
sI9406
(dp9451
sI9407
(dp9452
sI9408
(dp9453
sI9409
(dp9454
sI9410
(dp9455
sI9411
(dp9456
sI9412
(dp9457
sI9413
(dp9458
sI9414
(dp9459
sI9415
(dp9460
sI9416
(dp9461
sI9417
(dp9462
sI9418
(dp9463
sI9419
(dp9464
sI9420
(dp9465
sI9421
(dp9466
sI9422
(dp9467
sI9423
(dp9468
sI9424
(dp9469
sI9425
(dp9470
sI9426
(dp9471
sI9427
(dp9472
sI9428
(dp9473
sI9429
(dp9474
sI9430
(dp9475
sI9431
(dp9476
sI9432
(dp9477
sI9433
(dp9478
sI9434
(dp9479
sI9435
(dp9480
sI9436
(dp9481
sI9437
(dp9482
sI9438
(dp9483
sI9439
(dp9484
sI9440
(dp9485
sI9441
(dp9486
sI9442
(dp9487
sI9443
(dp9488
sI9444
(dp9489
sI9445
(dp9490
sI9446
(dp9491
sI9447
(dp9492
sI9448
(dp9493
sI9449
(dp9494
sI9450
(dp9495
sI9451
(dp9496
sI9452
(dp9497
sI9453
(dp9498
sI9454
(dp9499
sI9455
(dp9500
sI9456
(dp9501
sI9457
(dp9502
sI9458
(dp9503
sI9459
(dp9504
sI9460
(dp9505
sI9461
(dp9506
sI9462
(dp9507
sI9463
(dp9508
sI9464
(dp9509
sI9465
(dp9510
sI9466
(dp9511
sI9467
(dp9512
sI9468
(dp9513
sI9469
(dp9514
sI9470
(dp9515
sI9471
(dp9516
sI9472
(dp9517
sI9473
(dp9518
sI9474
(dp9519
sI9475
(dp9520
sI9476
(dp9521
sI9477
(dp9522
sI9478
(dp9523
sI9479
(dp9524
sI9480
(dp9525
sI9481
(dp9526
sI9482
(dp9527
sI9483
(dp9528
sI9484
(dp9529
sI9485
(dp9530
sI9486
(dp9531
sI9487
(dp9532
sI9488
(dp9533
sI9489
(dp9534
sI9490
(dp9535
sI9491
(dp9536
sI9492
(dp9537
sI9493
(dp9538
sI9494
(dp9539
sI9495
(dp9540
sI9496
(dp9541
sI9497
(dp9542
sI9498
(dp9543
sI9499
(dp9544
sI9500
(dp9545
S'epoch_interrupt_received'
p9546
I01
sS'train_reconstruct_error'
p9547
g5
(g6
(I0
tS'b'
tRp9548
(I1
(tg9
I00
S'\x1b<ZB'
tbsS'training_finished'
p9549
I01
ss(dp9550
S'status'
p9551
(dp9552
S'iterations_done'
p9553
I9500
sS'resumed_from'
p9554
Nsg9546
I01
sS'received_first_batch'
p9555
I01
sS'_epoch_ends'
p9556
(lp9557
I500
aI1000
aI1500
aI2000
aI2500
aI3000
aI3500
aI4000
aI4500
aI5000
aI5500
aI6000
aI6500
aI7000
aI7500
aI8000
aI8500
aI9000
aI9500
asS'epochs_done'
p9558
I19
sS'epoch_started'
p9559
I00
sS'batch_interrupt_received'
p9560
I00
sS'training_started'
p9561
I01
ssS'uuid'
p9562
ccopy_reg
_reconstructor
p9563
(cuuid
UUID
p9564
c__builtin__
object
p9565
NtRp9566
(dp9567
S'int'
p9568
L333227289573649234905159264561390954098L
sbsb.