(lp1
(lp2
cnumpy.core.multiarray
_reconstruct
p3
(cnumpy
ndarray
p4
(I0
tS'b'
tRp5
(I1
(tcnumpy
dtype
p6
(S'f4'
I0
I1
tRp7
(I3
S'<'
NNNI-1
I-1
I0
tbI00
S'\xe9\xdf\x81?'
tbag3
(g4
(I0
tS'b'
tRp8
(I1
(tg7
I00
S'}\xdd\x80?'
tbag3
(g4
(I0
tS'b'
tRp9
(I1
(tg7
I00
S'\x8b\xfd\x7f?'
tbag3
(g4
(I0
tS'b'
tRp10
(I1
(tg7
I00
S'l\x94~?'
tbag3
(g4
(I0
tS'b'
tRp11
(I1
(tg7
I00
S'\xb4\x02}?'
tbag3
(g4
(I0
tS'b'
tRp12
(I1
(tg7
I00
S'\x93\xc4{?'
tbag3
(g4
(I0
tS'b'
tRp13
(I1
(tg7
I00
S'\xcb\x93z?'
tbag3
(g4
(I0
tS'b'
tRp14
(I1
(tg7
I00
S'\xf7my?'
tbag3
(g4
(I0
tS'b'
tRp15
(I1
(tg7
I00
S'\xd2hx?'
tbag3
(g4
(I0
tS'b'
tRp16
(I1
(tg7
I00
S';Xw?'
tbag3
(g4
(I0
tS'b'
tRp17
(I1
(tg7
I00
S'/Xv?'
tbag3
(g4
(I0
tS'b'
tRp18
(I1
(tg7
I00
S'\xb4\x82u?'
tbag3
(g4
(I0
tS'b'
tRp19
(I1
(tg7
I00
S'l\x92t?'
tbag3
(g4
(I0
tS'b'
tRp20
(I1
(tg7
I00
S'\x1b\xb4s?'
tbag3
(g4
(I0
tS'b'
tRp21
(I1
(tg7
I00
S'`\xc2r?'
tbag3
(g4
(I0
tS'b'
tRp22
(I1
(tg7
I00
S'\x13\xdbq?'
tbag3
(g4
(I0
tS'b'
tRp23
(I1
(tg7
I00
S'}\xffp?'
tbag3
(g4
(I0
tS'b'
tRp24
(I1
(tg7
I00
S'p p?'
tbag3
(g4
(I0
tS'b'
tRp25
(I1
(tg7
I00
S'%)o?'
tbag3
(g4
(I0
tS'b'
tRp26
(I1
(tg7
I00
S'\x98\xfem?'
tbag3
(g4
(I0
tS'b'
tRp27
(I1
(tg7
I00
S'\x13Im?'
tbag3
(g4
(I0
tS'b'
tRp28
(I1
(tg7
I00
S'\xd2\xbfk?'
tbag3
(g4
(I0
tS'b'
tRp29
(I1
(tg7
I00
S'\x05\x8ej?'
tbag3
(g4
(I0
tS'b'
tRp30
(I1
(tg7
I00
S'\x05\x91i?'
tbag3
(g4
(I0
tS'b'
tRp31
(I1
(tg7
I00
S'\x10\x11h?'
tbag3
(g4
(I0
tS'b'
tRp32
(I1
(tg7
I00
S'\xbb"g?'
tbag3
(g4
(I0
tS'b'
tRp33
(I1
(tg7
I00
S'\xab\xcce?'
tbag3
(g4
(I0
tS'b'
tRp34
(I1
(tg7
I00
S'\xd9Yd?'
tbag3
(g4
(I0
tS'b'
tRp35
(I1
(tg7
I00
S'9\xc3b?'
tbag3
(g4
(I0
tS'b'
tRp36
(I1
(tg7
I00
S'i`a?'
tbag3
(g4
(I0
tS'b'
tRp37
(I1
(tg7
I00
S'<@`?'
tbag3
(g4
(I0
tS'b'
tRp38
(I1
(tg7
I00
S'\xfd\x02_?'
tbag3
(g4
(I0
tS'b'
tRp39
(I1
(tg7
I00
S'8\xbd]?'
tbag3
(g4
(I0
tS'b'
tRp40
(I1
(tg7
I00
S'7\xbc\\?'
tbag3
(g4
(I0
tS'b'
tRp41
(I1
(tg7
I00
S'A\x01Z?'
tbag3
(g4
(I0
tS'b'
tRp42
(I1
(tg7
I00
S'\xb8\x1fX?'
tbag3
(g4
(I0
tS'b'
tRp43
(I1
(tg7
I00
S'\xd77V?'
tbag3
(g4
(I0
tS'b'
tRp44
(I1
(tg7
I00
S'\xd2~T?'
tbag3
(g4
(I0
tS'b'
tRp45
(I1
(tg7
I00
S'\xc4\xdfR?'
tbag3
(g4
(I0
tS'b'
tRp46
(I1
(tg7
I00
S'\x1cMQ?'
tbag3
(g4
(I0
tS'b'
tRp47
(I1
(tg7
I00
S'\xc0\x02O?'
tbag3
(g4
(I0
tS'b'
tRp48
(I1
(tg7
I00
S'\x05>N?'
tbag3
(g4
(I0
tS'b'
tRp49
(I1
(tg7
I00
S'\xc5\xc5K?'
tbag3
(g4
(I0
tS'b'
tRp50
(I1
(tg7
I00
S'!\xc1I?'
tbag3
(g4
(I0
tS'b'
tRp51
(I1
(tg7
I00
S'\x02=H?'
tbag3
(g4
(I0
tS'b'
tRp52
(I1
(tg7
I00
S'\xed\x96G?'
tbag3
(g4
(I0
tS'b'
tRp53
(I1
(tg7
I00
S'\xd4OD?'
tbag3
(g4
(I0
tS'b'
tRp54
(I1
(tg7
I00
S'% C?'
tbag3
(g4
(I0
tS'b'
tRp55
(I1
(tg7
I00
S'\x95\xf4@?'
tbag3
(g4
(I0
tS'b'
tRp56
(I1
(tg7
I00
S'$\x99??'
tbag3
(g4
(I0
tS'b'
tRp57
(I1
(tg7
I00
S'S,=?'
tbag3
(g4
(I0
tS'b'
tRp58
(I1
(tg7
I00
S'\xa5H;?'
tbag3
(g4
(I0
tS'b'
tRp59
(I1
(tg7
I00
S'\x19V9?'
tbag3
(g4
(I0
tS'b'
tRp60
(I1
(tg7
I00
S'G\xd57?'
tbag3
(g4
(I0
tS'b'
tRp61
(I1
(tg7
I00
S'@\x895?'
tbag3
(g4
(I0
tS'b'
tRp62
(I1
(tg7
I00
S'\xaa\xb73?'
tbag3
(g4
(I0
tS'b'
tRp63
(I1
(tg7
I00
S'-\xbc2?'
tbag3
(g4
(I0
tS'b'
tRp64
(I1
(tg7
I00
S'\xd7\xfa/?'
tbag3
(g4
(I0
tS'b'
tRp65
(I1
(tg7
I00
S'\xbe\xe6-?'
tbag3
(g4
(I0
tS'b'
tRp66
(I1
(tg7
I00
S')\xa1+?'
tbag3
(g4
(I0
tS'b'
tRp67
(I1
(tg7
I00
S'\xb2})?'
tbag3
(g4
(I0
tS'b'
tRp68
(I1
(tg7
I00
S"[\xd9'?"
tbag3
(g4
(I0
tS'b'
tRp69
(I1
(tg7
I00
S'\xcb|%?'
tbag3
(g4
(I0
tS'b'
tRp70
(I1
(tg7
I00
S'\xdc0#?'
tbag3
(g4
(I0
tS'b'
tRp71
(I1
(tg7
I00
S'\x1f\x17!?'
tbag3
(g4
(I0
tS'b'
tRp72
(I1
(tg7
I00
S'\x08(!?'
tbag3
(g4
(I0
tS'b'
tRp73
(I1
(tg7
I00
S'\xad\x82\x1e?'
tbag3
(g4
(I0
tS'b'
tRp74
(I1
(tg7
I00
S'\xdc\xc8\x1c?'
tbag3
(g4
(I0
tS'b'
tRp75
(I1
(tg7
I00
S'P\x04\x1b?'
tbag3
(g4
(I0
tS'b'
tRp76
(I1
(tg7
I00
S'DU\x18?'
tbag3
(g4
(I0
tS'b'
tRp77
(I1
(tg7
I00
S'Rh\x17?'
tbag3
(g4
(I0
tS'b'
tRp78
(I1
(tg7
I00
S'T\xea\x14?'
tbag3
(g4
(I0
tS'b'
tRp79
(I1
(tg7
I00
S'\x9b\x9f\x12?'
tbag3
(g4
(I0
tS'b'
tRp80
(I1
(tg7
I00
S'\x9e\r\x12?'
tbag3
(g4
(I0
tS'b'
tRp81
(I1
(tg7
I00
S'$\x80\x10?'
tbag3
(g4
(I0
tS'b'
tRp82
(I1
(tg7
I00
S'\xb9=\x0e?'
tbag3
(g4
(I0
tS'b'
tRp83
(I1
(tg7
I00
S'\xa2[\r?'
tbag3
(g4
(I0
tS'b'
tRp84
(I1
(tg7
I00
S'\x17\x7f\n?'
tbag3
(g4
(I0
tS'b'
tRp85
(I1
(tg7
I00
S'\xcby\x08?'
tbag3
(g4
(I0
tS'b'
tRp86
(I1
(tg7
I00
S'\xafi\x07?'
tbag3
(g4
(I0
tS'b'
tRp87
(I1
(tg7
I00
S'\x9f\x90\x07?'
tbag3
(g4
(I0
tS'b'
tRp88
(I1
(tg7
I00
S'\x9b\x16\x03?'
tbag3
(g4
(I0
tS'b'
tRp89
(I1
(tg7
I00
S'\xd0A\x01?'
tbag3
(g4
(I0
tS'b'
tRp90
(I1
(tg7
I00
S'\x10\xf0\xfd>'
tbag3
(g4
(I0
tS'b'
tRp91
(I1
(tg7
I00
S'g\xab\xf6>'
tbag3
(g4
(I0
tS'b'
tRp92
(I1
(tg7
I00
S'\xa6r\xf3>'
tbag3
(g4
(I0
tS'b'
tRp93
(I1
(tg7
I00
S'\x89\xca\xee>'
tbag3
(g4
(I0
tS'b'
tRp94
(I1
(tg7
I00
S'\xa1\x8b\xeb>'
tbag3
(g4
(I0
tS'b'
tRp95
(I1
(tg7
I00
S'kI\xed>'
tbag3
(g4
(I0
tS'b'
tRp96
(I1
(tg7
I00
S'\x0f\xbf\xe6>'
tbag3
(g4
(I0
tS'b'
tRp97
(I1
(tg7
I00
S'\x97\xf7\xe2>'
tbag3
(g4
(I0
tS'b'
tRp98
(I1
(tg7
I00
S'*\xa6\xe7>'
tbag3
(g4
(I0
tS'b'
tRp99
(I1
(tg7
I00
S'3\xa9\xde>'
tbag3
(g4
(I0
tS'b'
tRp100
(I1
(tg7
I00
S'x\xdf\xda>'
tbag3
(g4
(I0
tS'b'
tRp101
(I1
(tg7
I00
S'\n\xe5\xd8>'
tbag3
(g4
(I0
tS'b'
tRp102
(I1
(tg7
I00
S'\xd0s\xd9>'
tbag3
(g4
(I0
tS'b'
tRp103
(I1
(tg7
I00
S'k\x0e\xd9>'
tbag3
(g4
(I0
tS'b'
tRp104
(I1
(tg7
I00
S'dm\xdc>'
tbag3
(g4
(I0
tS'b'
tRp105
(I1
(tg7
I00
S'\xf4\xe6\xd0>'
tbag3
(g4
(I0
tS'b'
tRp106
(I1
(tg7
I00
S'L\x02\xd0>'
tbag3
(g4
(I0
tS'b'
tRp107
(I1
(tg7
I00
S'ag\xd0>'
tbag3
(g4
(I0
tS'b'
tRp108
(I1
(tg7
I00
S'\x8e*\xcd>'
tbag3
(g4
(I0
tS'b'
tRp109
(I1
(tg7
I00
S'E\xae\xc9>'
tbag3
(g4
(I0
tS'b'
tRp110
(I1
(tg7
I00
S'\x14\x7f\xc9>'
tbag3
(g4
(I0
tS'b'
tRp111
(I1
(tg7
I00
S'W\x08\xca>'
tbag3
(g4
(I0
tS'b'
tRp112
(I1
(tg7
I00
S'>\xd6\xc8>'
tbag3
(g4
(I0
tS'b'
tRp113
(I1
(tg7
I00
S'G\x8d\xcb>'
tbag3
(g4
(I0
tS'b'
tRp114
(I1
(tg7
I00
S'\xe2\xf1\xc3>'
tbag3
(g4
(I0
tS'b'
tRp115
(I1
(tg7
I00
S'\xd5\xcb\xc1>'
tbag3
(g4
(I0
tS'b'
tRp116
(I1
(tg7
I00
S'\xceu\xc0>'
tbag3
(g4
(I0
tS'b'
tRp117
(I1
(tg7
I00
S'\xf9/\xbf>'
tbag3
(g4
(I0
tS'b'
tRp118
(I1
(tg7
I00
S'x4\xbd>'
tbag3
(g4
(I0
tS'b'
tRp119
(I1
(tg7
I00
S'W1\xbb>'
tbag3
(g4
(I0
tS'b'
tRp120
(I1
(tg7
I00
S'\x18\x17\xba>'
tbag3
(g4
(I0
tS'b'
tRp121
(I1
(tg7
I00
S'Y\xf0\xbb>'
tbag3
(g4
(I0
tS'b'
tRp122
(I1
(tg7
I00
S'"7\xc1>'
tbag3
(g4
(I0
tS'b'
tRp123
(I1
(tg7
I00
S'\xb8s\xc1>'
tbag3
(g4
(I0
tS'b'
tRp124
(I1
(tg7
I00
S'\xf3n\xba>'
tbag3
(g4
(I0
tS'b'
tRp125
(I1
(tg7
I00
S'\x98\xc3\xb6>'
tbag3
(g4
(I0
tS'b'
tRp126
(I1
(tg7
I00
S')\r\xb5>'
tbag3
(g4
(I0
tS'b'
tRp127
(I1
(tg7
I00
S'=\x81\xb2>'
tbag3
(g4
(I0
tS'b'
tRp128
(I1
(tg7
I00
S'SI\xb2>'
tbag3
(g4
(I0
tS'b'
tRp129
(I1
(tg7
I00
S'\x87\x1e\xb2>'
tbag3
(g4
(I0
tS'b'
tRp130
(I1
(tg7
I00
S'V\x94\xaf>'
tbag3
(g4
(I0
tS'b'
tRp131
(I1
(tg7
I00
S'\t]\xaf>'
tbag3
(g4
(I0
tS'b'
tRp132
(I1
(tg7
I00
S'v*\xae>'
tbag3
(g4
(I0
tS'b'
tRp133
(I1
(tg7
I00
S'\xfb\xd2\xac>'
tbag3
(g4
(I0
tS'b'
tRp134
(I1
(tg7
I00
S'mg\xab>'
tbag3
(g4
(I0
tS'b'
tRp135
(I1
(tg7
I00
S'\xfd\xe5\xac>'
tbag3
(g4
(I0
tS'b'
tRp136
(I1
(tg7
I00
S'dJ\xb8>'
tbag3
(g4
(I0
tS'b'
tRp137
(I1
(tg7
I00
S'\x87\xda\xb5>'
tbag3
(g4
(I0
tS'b'
tRp138
(I1
(tg7
I00
S'\x10\xb7\xa9>'
tbag3
(g4
(I0
tS'b'
tRp139
(I1
(tg7
I00
S'\xf4\xaf\xa8>'
tbag3
(g4
(I0
tS'b'
tRp140
(I1
(tg7
I00
S'\xc6v\xa6>'
tbag3
(g4
(I0
tS'b'
tRp141
(I1
(tg7
I00
S'\x9ez\xa5>'
tbag3
(g4
(I0
tS'b'
tRp142
(I1
(tg7
I00
S']W\xa4>'
tbag3
(g4
(I0
tS'b'
tRp143
(I1
(tg7
I00
S's\xb1\xa4>'
tbag3
(g4
(I0
tS'b'
tRp144
(I1
(tg7
I00
S']\t\xa5>'
tbag3
(g4
(I0
tS'b'
tRp145
(I1
(tg7
I00
S'\x8e8\xa3>'
tbag3
(g4
(I0
tS'b'
tRp146
(I1
(tg7
I00
S'A\xe8\xa9>'
tbag3
(g4
(I0
tS'b'
tRp147
(I1
(tg7
I00
S'.\xfb\xa8>'
tbag3
(g4
(I0
tS'b'
tRp148
(I1
(tg7
I00
S'\xf6G\xa2>'
tbag3
(g4
(I0
tS'b'
tRp149
(I1
(tg7
I00
S'\xfd<\xa0>'
tbag3
(g4
(I0
tS'b'
tRp150
(I1
(tg7
I00
S'\x8d\x0e\xa2>'
tbag3
(g4
(I0
tS'b'
tRp151
(I1
(tg7
I00
S'P\x1e\xaa>'
tbag3
(g4
(I0
tS'b'
tRp152
(I1
(tg7
I00
S'\xb3\x1a\x9e>'
tbag3
(g4
(I0
tS'b'
tRp153
(I1
(tg7
I00
S'\x9e%\x9c>'
tbag3
(g4
(I0
tS'b'
tRp154
(I1
(tg7
I00
S'\x92\x18\x9c>'
tbag3
(g4
(I0
tS'b'
tRp155
(I1
(tg7
I00
S'\xa9D\x9d>'
tbag3
(g4
(I0
tS'b'
tRp156
(I1
(tg7
I00
S'c\xe3\x9c>'
tbag3
(g4
(I0
tS'b'
tRp157
(I1
(tg7
I00
S'\x92\xab\x9b>'
tbag3
(g4
(I0
tS'b'
tRp158
(I1
(tg7
I00
S'\xeb\xfd\x9f>'
tbag3
(g4
(I0
tS'b'
tRp159
(I1
(tg7
I00
S'\x86\xa2\xa8>'
tbag3
(g4
(I0
tS'b'
tRp160
(I1
(tg7
I00
S'\xa1\xf7\x9e>'
tbag3
(g4
(I0
tS'b'
tRp161
(I1
(tg7
I00
S'f\xa5\x98>'
tbag3
(g4
(I0
tS'b'
tRp162
(I1
(tg7
I00
S'I\x17\x96>'
tbag3
(g4
(I0
tS'b'
tRp163
(I1
(tg7
I00
S'\x9d\xcb\x95>'
tbag3
(g4
(I0
tS'b'
tRp164
(I1
(tg7
I00
S'\xa2\xfd\x95>'
tbag3
(g4
(I0
tS'b'
tRp165
(I1
(tg7
I00
S'\n[\x98>'
tbag3
(g4
(I0
tS'b'
tRp166
(I1
(tg7
I00
S'\xc9\xb6\x9a>'
tbag3
(g4
(I0
tS'b'
tRp167
(I1
(tg7
I00
S'\xa0\xab\x99>'
tbag3
(g4
(I0
tS'b'
tRp168
(I1
(tg7
I00
S'\x07$\x92>'
tbag3
(g4
(I0
tS'b'
tRp169
(I1
(tg7
I00
S'\xafo\x91>'
tbag3
(g4
(I0
tS'b'
tRp170
(I1
(tg7
I00
S'\x02a\x92>'
tbag3
(g4
(I0
tS'b'
tRp171
(I1
(tg7
I00
S'u\x92\x98>'
tbag3
(g4
(I0
tS'b'
tRp172
(I1
(tg7
I00
S'\xd1\xbe\x9a>'
tbag3
(g4
(I0
tS'b'
tRp173
(I1
(tg7
I00
S'\x98\xe1\x98>'
tbag3
(g4
(I0
tS'b'
tRp174
(I1
(tg7
I00
S'\xc2\x15\x93>'
tbag3
(g4
(I0
tS'b'
tRp175
(I1
(tg7
I00
S'\xabs\x90>'
tbag3
(g4
(I0
tS'b'
tRp176
(I1
(tg7
I00
S'\xfd\x18\x8e>'
tbag3
(g4
(I0
tS'b'
tRp177
(I1
(tg7
I00
S'\xa6\xc2\x8b>'
tbag3
(g4
(I0
tS'b'
tRp178
(I1
(tg7
I00
S'\xc7[\x8b>'
tbag3
(g4
(I0
tS'b'
tRp179
(I1
(tg7
I00
S'W\xa8\x8b>'
tbag3
(g4
(I0
tS'b'
tRp180
(I1
(tg7
I00
S'\xd4u\x89>'
tbag3
(g4
(I0
tS'b'
tRp181
(I1
(tg7
I00
S'bW\x89>'
tbag3
(g4
(I0
tS'b'
tRp182
(I1
(tg7
I00
S'\x97\xee\x88>'
tbag3
(g4
(I0
tS'b'
tRp183
(I1
(tg7
I00
S'\xde(\x88>'
tbag3
(g4
(I0
tS'b'
tRp184
(I1
(tg7
I00
S'^\xc7\x88>'
tbag3
(g4
(I0
tS'b'
tRp185
(I1
(tg7
I00
S' l\x88>'
tbag3
(g4
(I0
tS'b'
tRp186
(I1
(tg7
I00
S'c\x97\x86>'
tbag3
(g4
(I0
tS'b'
tRp187
(I1
(tg7
I00
S'?b\x84>'
tbag3
(g4
(I0
tS'b'
tRp188
(I1
(tg7
I00
S'\x08\xf2\x83>'
tbag3
(g4
(I0
tS'b'
tRp189
(I1
(tg7
I00
S'\xa0\xdb\x8a>'
tbag3
(g4
(I0
tS'b'
tRp190
(I1
(tg7
I00
S'\x19\xdc\x95>'
tbag3
(g4
(I0
tS'b'
tRp191
(I1
(tg7
I00
S'Z\x85\x93>'
tbag3
(g4
(I0
tS'b'
tRp192
(I1
(tg7
I00
S'\x8a\x95\x8c>'
tbag3
(g4
(I0
tS'b'
tRp193
(I1
(tg7
I00
S'\x0b\x9d\x85>'
tbag3
(g4
(I0
tS'b'
tRp194
(I1
(tg7
I00
S"\xb4'\x83>"
tbag3
(g4
(I0
tS'b'
tRp195
(I1
(tg7
I00
S'(\x07\x85>'
tbag3
(g4
(I0
tS'b'
tRp196
(I1
(tg7
I00
S'\xdd\xd7~>'
tbag3
(g4
(I0
tS'b'
tRp197
(I1
(tg7
I00
S'\xe0\xff\x80>'
tbag3
(g4
(I0
tS'b'
tRp198
(I1
(tg7
I00
S'\xc0\xff\x84>'
tbag3
(g4
(I0
tS'b'
tRp199
(I1
(tg7
I00
S'{\x06\x81>'
tbag3
(g4
(I0
tS'b'
tRp200
(I1
(tg7
I00
S'\x90J\x7f>'
tbag3
(g4
(I0
tS'b'
tRp201
(I1
(tg7
I00
S'\x99|y>'
tbag3
(g4
(I0
tS'b'
tRp202
(I1
(tg7
I00
S'\xdd7\x85>'
tbag3
(g4
(I0
tS'b'
tRp203
(I1
(tg7
I00
S'\x8f\x9a\x82>'
tbag3
(g4
(I0
tS'b'
tRp204
(I1
(tg7
I00
S';_\x84>'
tbag3
(g4
(I0
tS'b'
tRp205
(I1
(tg7
I00
S'S\xb5{>'
tbag3
(g4
(I0
tS'b'
tRp206
(I1
(tg7
I00
S'\x98\xa5r>'
tbag3
(g4
(I0
tS'b'
tRp207
(I1
(tg7
I00
S"'\xfeo>"
tbag3
(g4
(I0
tS'b'
tRp208
(I1
(tg7
I00
S'\xe3\x0bo>'
tbag3
(g4
(I0
tS'b'
tRp209
(I1
(tg7
I00
S'\x0e\xadw>'
tbag3
(g4
(I0
tS'b'
tRp210
(I1
(tg7
I00
S'\xd8\x0e{>'
tbag3
(g4
(I0
tS'b'
tRp211
(I1
(tg7
I00
S'\xee\x00u>'
tbag3
(g4
(I0
tS'b'
tRp212
(I1
(tg7
I00
S'\xf3\xdbp>'
tbag3
(g4
(I0
tS'b'
tRp213
(I1
(tg7
I00
S'\xeb\xa6i>'
tbag3
(g4
(I0
tS'b'
tRp214
(I1
(tg7
I00
S'\xe3\xc5h>'
tbag3
(g4
(I0
tS'b'
tRp215
(I1
(tg7
I00
S'\xe1\x03i>'
tbag3
(g4
(I0
tS'b'
tRp216
(I1
(tg7
I00
S'\xa0\xe0j>'
tbag3
(g4
(I0
tS'b'
tRp217
(I1
(tg7
I00
S'\x0f\xe1r>'
tbag3
(g4
(I0
tS'b'
tRp218
(I1
(tg7
I00
S'\xc7\xf6\x8d>'
tbag3
(g4
(I0
tS'b'
tRp219
(I1
(tg7
I00
S'\xfd\x0f\x80>'
tbag3
(g4
(I0
tS'b'
tRp220
(I1
(tg7
I00
S'3Si>'
tbag3
(g4
(I0
tS'b'
tRp221
(I1
(tg7
I00
S'S\xe4`>'
tbag3
(g4
(I0
tS'b'
tRp222
(I1
(tg7
I00
S'\x80R^>'
tbag3
(g4
(I0
tS'b'
tRp223
(I1
(tg7
I00
S'\x00\xbc`>'
tbag3
(g4
(I0
tS'b'
tRp224
(I1
(tg7
I00
S'}\xcdf>'
tbag3
(g4
(I0
tS'b'
tRp225
(I1
(tg7
I00
S'\xac$q>'
tbag3
(g4
(I0
tS'b'
tRp226
(I1
(tg7
I00
S'\x86qi>'
tbag3
(g4
(I0
tS'b'
tRp227
(I1
(tg7
I00
S'\xb0=\\>'
tbag3
(g4
(I0
tS'b'
tRp228
(I1
(tg7
I00
S'\xfc\x9fW>'
tbag3
(g4
(I0
tS'b'
tRp229
(I1
(tg7
I00
S't\xecU>'
tbag3
(g4
(I0
tS'b'
tRp230
(I1
(tg7
I00
S'\xfbP[>'
tbag3
(g4
(I0
tS'b'
tRp231
(I1
(tg7
I00
S'\x99^l>'
tbag3
(g4
(I0
tS'b'
tRp232
(I1
(tg7
I00
S'\xa4\xbfa>'
tbag3
(g4
(I0
tS'b'
tRp233
(I1
(tg7
I00
S'~\x97\\>'
tbag3
(g4
(I0
tS'b'
tRp234
(I1
(tg7
I00
S'e\xe9]>'
tbag3
(g4
(I0
tS'b'
tRp235
(I1
(tg7
I00
S'x\x9cT>'
tbag3
(g4
(I0
tS'b'
tRp236
(I1
(tg7
I00
S'\x19\xe9O>'
tbag3
(g4
(I0
tS'b'
tRp237
(I1
(tg7
I00
S'\xdd\xf2N>'
tbag3
(g4
(I0
tS'b'
tRp238
(I1
(tg7
I00
S'\xdd\x1aP>'
tbag3
(g4
(I0
tS'b'
tRp239
(I1
(tg7
I00
S'+8V>'
tbag3
(g4
(I0
tS'b'
tRp240
(I1
(tg7
I00
S',\tY>'
tbag3
(g4
(I0
tS'b'
tRp241
(I1
(tg7
I00
S'&\x04Z>'
tbag3
(g4
(I0
tS'b'
tRp242
(I1
(tg7
I00
S'\xcf\x1cd>'
tbag3
(g4
(I0
tS'b'
tRp243
(I1
(tg7
I00
S'\xe0\xc9c>'
tbag3
(g4
(I0
tS'b'
tRp244
(I1
(tg7
I00
S'E\x87Y>'
tbag3
(g4
(I0
tS'b'
tRp245
(I1
(tg7
I00
S'\x9bL`>'
tbag3
(g4
(I0
tS'b'
tRp246
(I1
(tg7
I00
S'\xeb\xf3H>'
tbag3
(g4
(I0
tS'b'
tRp247
(I1
(tg7
I00
S'\x87\xf2J>'
tbag3
(g4
(I0
tS'b'
tRp248
(I1
(tg7
I00
S'\xb9\xa4L>'
tbag3
(g4
(I0
tS'b'
tRp249
(I1
(tg7
I00
S'W\x87F>'
tbag3
(g4
(I0
tS'b'
tRp250
(I1
(tg7
I00
S'\n\xbfC>'
tbag3
(g4
(I0
tS'b'
tRp251
(I1
(tg7
I00
S'\xe6\xf6?>'
tbag3
(g4
(I0
tS'b'
tRp252
(I1
(tg7
I00
S'aHM>'
tbag3
(g4
(I0
tS'b'
tRp253
(I1
(tg7
I00
S'\x04\xaeN>'
tbag3
(g4
(I0
tS'b'
tRp254
(I1
(tg7
I00
S'\xef\x1cT>'
tbag3
(g4
(I0
tS'b'
tRp255
(I1
(tg7
I00
S'w\xcdK>'
tbag3
(g4
(I0
tS'b'
tRp256
(I1
(tg7
I00
S'\xae|>>'
tbag3
(g4
(I0
tS'b'
tRp257
(I1
(tg7
I00
S'\xae\x7f<>'
tbag3
(g4
(I0
tS'b'
tRp258
(I1
(tg7
I00
S'\xf2\xb5?>'
tbag3
(g4
(I0
tS'b'
tRp259
(I1
(tg7
I00
S'\xbe\tE>'
tbag3
(g4
(I0
tS'b'
tRp260
(I1
(tg7
I00
S'\x84=?>'
tbag3
(g4
(I0
tS'b'
tRp261
(I1
(tg7
I00
S'm\x95;>'
tbag3
(g4
(I0
tS'b'
tRp262
(I1
(tg7
I00
S'\xcb\xf18>'
tbag3
(g4
(I0
tS'b'
tRp263
(I1
(tg7
I00
S'\xe5\x1a3>'
tbag3
(g4
(I0
tS'b'
tRp264
(I1
(tg7
I00
S'\xe9\xf51>'
tbag3
(g4
(I0
tS'b'
tRp265
(I1
(tg7
I00
S'\xde\xec0>'
tbag3
(g4
(I0
tS'b'
tRp266
(I1
(tg7
I00
S'\xa0u/>'
tbag3
(g4
(I0
tS'b'
tRp267
(I1
(tg7
I00
S'\x00s/>'
tbag3
(g4
(I0
tS'b'
tRp268
(I1
(tg7
I00
S'>\xecK>'
tbag3
(g4
(I0
tS'b'
tRp269
(I1
(tg7
I00
S's\xd8`>'
tbag3
(g4
(I0
tS'b'
tRp270
(I1
(tg7
I00
S'NmH>'
tbag3
(g4
(I0
tS'b'
tRp271
(I1
(tg7
I00
S'\xfdK`>'
tbag3
(g4
(I0
tS'b'
tRp272
(I1
(tg7
I00
S'\xac\xf3O>'
tbag3
(g4
(I0
tS'b'
tRp273
(I1
(tg7
I00
S"\xe4'4>"
tbag3
(g4
(I0
tS'b'
tRp274
(I1
(tg7
I00
S'yP*>'
tbag3
(g4
(I0
tS'b'
tRp275
(I1
(tg7
I00
S'\xeb\x1b(>'
tbag3
(g4
(I0
tS'b'
tRp276
(I1
(tg7
I00
S'\x17\xaf&>'
tbag3
(g4
(I0
tS'b'
tRp277
(I1
(tg7
I00
S'6\xf4&>'
tbag3
(g4
(I0
tS'b'
tRp278
(I1
(tg7
I00
S'\xe7\xde*>'
tbag3
(g4
(I0
tS'b'
tRp279
(I1
(tg7
I00
S'\xca\xfe/>'
tbag3
(g4
(I0
tS'b'
tRp280
(I1
(tg7
I00
S'{\xac&>'
tbag3
(g4
(I0
tS'b'
tRp281
(I1
(tg7
I00
S'\xc0\x03%>'
tbag3
(g4
(I0
tS'b'
tRp282
(I1
(tg7
I00
S'\x02\x0b2>'
tbag3
(g4
(I0
tS'b'
tRp283
(I1
(tg7
I00
S'-\x11>>'
tbag3
(g4
(I0
tS'b'
tRp284
(I1
(tg7
I00
S'\x94\xfc>>'
tbag3
(g4
(I0
tS'b'
tRp285
(I1
(tg7
I00
S'2\xe7F>'
tbag3
(g4
(I0
tS'b'
tRp286
(I1
(tg7
I00
S'\x05\xb45>'
tbag3
(g4
(I0
tS'b'
tRp287
(I1
(tg7
I00
S'@\xf23>'
tbag3
(g4
(I0
tS'b'
tRp288
(I1
(tg7
I00
S'\xf9\x81&>'
tbag3
(g4
(I0
tS'b'
tRp289
(I1
(tg7
I00
S'\r\xb6 >'
tbag3
(g4
(I0
tS'b'
tRp290
(I1
(tg7
I00
S'\xa6]\x1c>'
tbag3
(g4
(I0
tS'b'
tRp291
(I1
(tg7
I00
S'7\xa1\x1a>'
tbag3
(g4
(I0
tS'b'
tRp292
(I1
(tg7
I00
S'U\xd2\x19>'
tbag3
(g4
(I0
tS'b'
tRp293
(I1
(tg7
I00
S'9\xd6\x18>'
tbag3
(g4
(I0
tS'b'
tRp294
(I1
(tg7
I00
S'\x92\xd8\x17>'
tbag3
(g4
(I0
tS'b'
tRp295
(I1
(tg7
I00
S'QN\x19>'
tbag3
(g4
(I0
tS'b'
tRp296
(I1
(tg7
I00
S'mj\x16>'
tbag3
(g4
(I0
tS'b'
tRp297
(I1
(tg7
I00
S'\xa9p\x1c>'
tbag3
(g4
(I0
tS'b'
tRp298
(I1
(tg7
I00
S'\xb9\x821>'
tbag3
(g4
(I0
tS'b'
tRp299
(I1
(tg7
I00
S'j\xfc?>'
tbag3
(g4
(I0
tS'b'
tRp300
(I1
(tg7
I00
S'jS7>'
tbag3
(g4
(I0
tS'b'
tRp301
(I1
(tg7
I00
S'\xd0\xcf?>'
tbag3
(g4
(I0
tS'b'
tRp302
(I1
(tg7
I00
S'\xd8\xfa?>'
tbag3
(g4
(I0
tS'b'
tRp303
(I1
(tg7
I00
S'T\x990>'
tbag3
(g4
(I0
tS'b'
tRp304
(I1
(tg7
I00
S"2\x84'>"
tbag3
(g4
(I0
tS'b'
tRp305
(I1
(tg7
I00
S'y5\x1a>'
tbag3
(g4
(I0
tS'b'
tRp306
(I1
(tg7
I00
S'M\xba\x12>'
tbag3
(g4
(I0
tS'b'
tRp307
(I1
(tg7
I00
S'T\x12\x10>'
tbag3
(g4
(I0
tS'b'
tRp308
(I1
(tg7
I00
S'g\xd3\x0f>'
tbag3
(g4
(I0
tS'b'
tRp309
(I1
(tg7
I00
S'oY\x11>'
tbag3
(g4
(I0
tS'b'
tRp310
(I1
(tg7
I00
S'\x8bk\x0f>'
tbag3
(g4
(I0
tS'b'
tRp311
(I1
(tg7
I00
S'~\x00\x0e>'
tbag3
(g4
(I0
tS'b'
tRp312
(I1
(tg7
I00
S'\x05\xca\x0c>'
tbag3
(g4
(I0
tS'b'
tRp313
(I1
(tg7
I00
S'9\x19\x0b>'
tbag3
(g4
(I0
tS'b'
tRp314
(I1
(tg7
I00
S'B\xf9\n>'
tbag3
(g4
(I0
tS'b'
tRp315
(I1
(tg7
I00
S'\xefZ\x0c>'
tbag3
(g4
(I0
tS'b'
tRp316
(I1
(tg7
I00
S'+\xcc\x12>'
tbag3
(g4
(I0
tS'b'
tRp317
(I1
(tg7
I00
S'\x7f0\x1e>'
tbag3
(g4
(I0
tS'b'
tRp318
(I1
(tg7
I00
S'\xd7\x82\x1b>'
tbag3
(g4
(I0
tS'b'
tRp319
(I1
(tg7
I00
S'g\xc9,>'
tbag3
(g4
(I0
tS'b'
tRp320
(I1
(tg7
I00
S'"G;>'
tbag3
(g4
(I0
tS'b'
tRp321
(I1
(tg7
I00
S'r\xfb)>'
tbag3
(g4
(I0
tS'b'
tRp322
(I1
(tg7
I00
S'\x89\xb3(>'
tbag3
(g4
(I0
tS'b'
tRp323
(I1
(tg7
I00
S'".\x1c>'
tbag3
(g4
(I0
tS'b'
tRp324
(I1
(tg7
I00
S'\xf1\x87\x11>'
tbag3
(g4
(I0
tS'b'
tRp325
(I1
(tg7
I00
S'?\x89\x0b>'
tbag3
(g4
(I0
tS'b'
tRp326
(I1
(tg7
I00
S'YW\x07>'
tbag3
(g4
(I0
tS'b'
tRp327
(I1
(tg7
I00
S'\x86Z\x03>'
tbag3
(g4
(I0
tS'b'
tRp328
(I1
(tg7
I00
S'}f\x02>'
tbag3
(g4
(I0
tS'b'
tRp329
(I1
(tg7
I00
S'-U\x02>'
tbag3
(g4
(I0
tS'b'
tRp330
(I1
(tg7
I00
S'\xaa\\\x01>'
tbag3
(g4
(I0
tS'b'
tRp331
(I1
(tg7
I00
S'N\x9c\x02>'
tbag3
(g4
(I0
tS'b'
tRp332
(I1
(tg7
I00
S'z\xbe\x00>'
tbag3
(g4
(I0
tS'b'
tRp333
(I1
(tg7
I00
S'\xbbv\x00>'
tbag3
(g4
(I0
tS'b'
tRp334
(I1
(tg7
I00
S'\xc9-\x01>'
tbag3
(g4
(I0
tS'b'
tRp335
(I1
(tg7
I00
S',c\xfb='
tbag3
(g4
(I0
tS'b'
tRp336
(I1
(tg7
I00
S'l\x84\xfa='
tbag3
(g4
(I0
tS'b'
tRp337
(I1
(tg7
I00
S'\xaf\xcc\x08>'
tbag3
(g4
(I0
tS'b'
tRp338
(I1
(tg7
I00
S'\xa9t(>'
tbag3
(g4
(I0
tS'b'
tRp339
(I1
(tg7
I00
S'y.N>'
tbag3
(g4
(I0
tS'b'
tRp340
(I1
(tg7
I00
S'[\xf3 >'
tbag3
(g4
(I0
tS'b'
tRp341
(I1
(tg7
I00
S'\x0bLI>'
tbag3
(g4
(I0
tS'b'
tRp342
(I1
(tg7
I00
S'!\xd5F>'
tbag3
(g4
(I0
tS'b'
tRp343
(I1
(tg7
I00
S'[7\x0b>'
tbag3
(g4
(I0
tS'b'
tRp344
(I1
(tg7
I00
S'X\n\xf9='
tbag3
(g4
(I0
tS'b'
tRp345
(I1
(tg7
I00
S'\x14R\xfb='
tbag3
(g4
(I0
tS'b'
tRp346
(I1
(tg7
I00
S'\x8c\xf3\xf0='
tbag3
(g4
(I0
tS'b'
tRp347
(I1
(tg7
I00
S'E,\xf3='
tbag3
(g4
(I0
tS'b'
tRp348
(I1
(tg7
I00
S'=%\xf4='
tbag3
(g4
(I0
tS'b'
tRp349
(I1
(tg7
I00
S'<\xd3\xef='
tbag3
(g4
(I0
tS'b'
tRp350
(I1
(tg7
I00
S'~$\xee='
tbag3
(g4
(I0
tS'b'
tRp351
(I1
(tg7
I00
S'r\xa6\xeb='
tbag3
(g4
(I0
tS'b'
tRp352
(I1
(tg7
I00
S'\xd7\xaf\xf5='
tbag3
(g4
(I0
tS'b'
tRp353
(I1
(tg7
I00
S'\xb7\x89\x02>'
tbag3
(g4
(I0
tS'b'
tRp354
(I1
(tg7
I00
S'\xc5=\x17>'
tbag3
(g4
(I0
tS'b'
tRp355
(I1
(tg7
I00
S'g3">'
tbag3
(g4
(I0
tS'b'
tRp356
(I1
(tg7
I00
S'\x00H\x10>'
tbag3
(g4
(I0
tS'b'
tRp357
(I1
(tg7
I00
S'F\xe0\x04>'
tbag3
(g4
(I0
tS'b'
tRp358
(I1
(tg7
I00
S'\x14\xed\x00>'
tbag3
(g4
(I0
tS'b'
tRp359
(I1
(tg7
I00
S'\x02\x8b\x01>'
tbag3
(g4
(I0
tS'b'
tRp360
(I1
(tg7
I00
S'\x17-\xf8='
tbag3
(g4
(I0
tS'b'
tRp361
(I1
(tg7
I00
S'N\x87\xf2='
tbag3
(g4
(I0
tS'b'
tRp362
(I1
(tg7
I00
S'\x0c\x8c\xed='
tbag3
(g4
(I0
tS'b'
tRp363
(I1
(tg7
I00
S'u\x1d\xe5='
tbag3
(g4
(I0
tS'b'
tRp364
(I1
(tg7
I00
S'St\xe3='
tbag3
(g4
(I0
tS'b'
tRp365
(I1
(tg7
I00
S'\x86\xd6\xe2='
tbag3
(g4
(I0
tS'b'
tRp366
(I1
(tg7
I00
S'\xb2X\xe1='
tbag3
(g4
(I0
tS'b'
tRp367
(I1
(tg7
I00
S'\x14\xd8\xe3='
tbag3
(g4
(I0
tS'b'
tRp368
(I1
(tg7
I00
S'\x8c\x16\x0c>'
tbag3
(g4
(I0
tS'b'
tRp369
(I1
(tg7
I00
S'\x95\xab >'
tbag3
(g4
(I0
tS'b'
tRp370
(I1
(tg7
I00
S'v\xa2\x1c>'
tbag3
(g4
(I0
tS'b'
tRp371
(I1
(tg7
I00
S'\xb7\x13\x14>'
tbag3
(g4
(I0
tS'b'
tRp372
(I1
(tg7
I00
S'E\xe3\xf4='
tbag3
(g4
(I0
tS'b'
tRp373
(I1
(tg7
I00
S'\xcc\xbc\xf2='
tbag3
(g4
(I0
tS'b'
tRp374
(I1
(tg7
I00
S'\x98\xce\xef='
tbag3
(g4
(I0
tS'b'
tRp375
(I1
(tg7
I00
S'\x0bg\xf4='
tbag3
(g4
(I0
tS'b'
tRp376
(I1
(tg7
I00
S'\xab\x86\xf5='
tbag3
(g4
(I0
tS'b'
tRp377
(I1
(tg7
I00
S'\x93g\xff='
tbag3
(g4
(I0
tS'b'
tRp378
(I1
(tg7
I00
S'K\x15\x05>'
tbag3
(g4
(I0
tS'b'
tRp379
(I1
(tg7
I00
S'V\xec\x08>'
tbag3
(g4
(I0
tS'b'
tRp380
(I1
(tg7
I00
S'\xab\xe9\xe9='
tbag3
(g4
(I0
tS'b'
tRp381
(I1
(tg7
I00
S'\x12~\xe5='
tbag3
(g4
(I0
tS'b'
tRp382
(I1
(tg7
I00
S'8\xb3\xf3='
tbag3
(g4
(I0
tS'b'
tRp383
(I1
(tg7
I00
S'p;\xf8='
tbag3
(g4
(I0
tS'b'
tRp384
(I1
(tg7
I00
S'\xca=\xf3='
tbag3
(g4
(I0
tS'b'
tRp385
(I1
(tg7
I00
S'\\\xc4\x07>'
tbag3
(g4
(I0
tS'b'
tRp386
(I1
(tg7
I00
S'\xe2@\x00>'
tbag3
(g4
(I0
tS'b'
tRp387
(I1
(tg7
I00
S'@\x14\x10>'
tbag3
(g4
(I0
tS'b'
tRp388
(I1
(tg7
I00
S'\x16E\x04>'
tbag3
(g4
(I0
tS'b'
tRp389
(I1
(tg7
I00
S'\xc9W\xf0='
tbag3
(g4
(I0
tS'b'
tRp390
(I1
(tg7
I00
S'\x19A\xde='
tbag3
(g4
(I0
tS'b'
tRp391
(I1
(tg7
I00
S'\x89\xf4\xd1='
tbag3
(g4
(I0
tS'b'
tRp392
(I1
(tg7
I00
S'\xe5\x0e\xd3='
tbag3
(g4
(I0
tS'b'
tRp393
(I1
(tg7
I00
S'\xa4\xa7\xd3='
tbag3
(g4
(I0
tS'b'
tRp394
(I1
(tg7
I00
S'>\x95\xd3='
tbag3
(g4
(I0
tS'b'
tRp395
(I1
(tg7
I00
S'\x8e\xf1\xee='
tbag3
(g4
(I0
tS'b'
tRp396
(I1
(tg7
I00
S'\x8b\x95\xeb='
tbag3
(g4
(I0
tS'b'
tRp397
(I1
(tg7
I00
S'`\xbd\t>'
tbag3
(g4
(I0
tS'b'
tRp398
(I1
(tg7
I00
S'\xe8E\x0c>'
tbag3
(g4
(I0
tS'b'
tRp399
(I1
(tg7
I00
S'#\xb1\xfe='
tbag3
(g4
(I0
tS'b'
tRp400
(I1
(tg7
I00
S'\xa6\x87\xe4='
tbag3
(g4
(I0
tS'b'
tRp401
(I1
(tg7
I00
S'*M\xde='
tbag3
(g4
(I0
tS'b'
tRp402
(I1
(tg7
I00
S'\xd4)\xfb='
tbag3
(g4
(I0
tS'b'
tRp403
(I1
(tg7
I00
S'U!\xf7='
tbag3
(g4
(I0
tS'b'
tRp404
(I1
(tg7
I00
S'#T\xeb='
tbag3
(g4
(I0
tS'b'
tRp405
(I1
(tg7
I00
S'oe\x01>'
tbag3
(g4
(I0
tS'b'
tRp406
(I1
(tg7
I00
S'\x89t\xec='
tbag3
(g4
(I0
tS'b'
tRp407
(I1
(tg7
I00
S'\xe7\xd5\xe8='
tbag3
(g4
(I0
tS'b'
tRp408
(I1
(tg7
I00
S'\x07y\xe9='
tbag3
(g4
(I0
tS'b'
tRp409
(I1
(tg7
I00
S'\xa0\xdb\xed='
tbag3
(g4
(I0
tS'b'
tRp410
(I1
(tg7
I00
S'0\xc4\xdf='
tbag3
(g4
(I0
tS'b'
tRp411
(I1
(tg7
I00
S'b(\xd8='
tbag3
(g4
(I0
tS'b'
tRp412
(I1
(tg7
I00
S'&s\xd2='
tbag3
(g4
(I0
tS'b'
tRp413
(I1
(tg7
I00
S'\xb0\x18\xc8='
tbag3
(g4
(I0
tS'b'
tRp414
(I1
(tg7
I00
S'\x1b\x90\xc8='
tbag3
(g4
(I0
tS'b'
tRp415
(I1
(tg7
I00
S'sk\xc9='
tbag3
(g4
(I0
tS'b'
tRp416
(I1
(tg7
I00
S'\xa13\xca='
tbag3
(g4
(I0
tS'b'
tRp417
(I1
(tg7
I00
S'kW\xd6='
tbag3
(g4
(I0
tS'b'
tRp418
(I1
(tg7
I00
S'`p\x0f>'
tbag3
(g4
(I0
tS'b'
tRp419
(I1
(tg7
I00
S'\xdc\xb6\r>'
tbag3
(g4
(I0
tS'b'
tRp420
(I1
(tg7
I00
S'=\x0e\xf7='
tbag3
(g4
(I0
tS'b'
tRp421
(I1
(tg7
I00
S'\xb2\xd3\xda='
tbag3
(g4
(I0
tS'b'
tRp422
(I1
(tg7
I00
S'/\xda\xc2='
tbag3
(g4
(I0
tS'b'
tRp423
(I1
(tg7
I00
S'\xe4H\xbd='
tbag3
(g4
(I0
tS'b'
tRp424
(I1
(tg7
I00
S'MJ\xbb='
tbag3
(g4
(I0
tS'b'
tRp425
(I1
(tg7
I00
S'O\xcf\xbc='
tbag3
(g4
(I0
tS'b'
tRp426
(I1
(tg7
I00
S'k}\xc3='
tbag3
(g4
(I0
tS'b'
tRp427
(I1
(tg7
I00
S'\xb7\xca\xda='
tbag3
(g4
(I0
tS'b'
tRp428
(I1
(tg7
I00
S'\xf6\x0f\x0c>'
tbag3
(g4
(I0
tS'b'
tRp429
(I1
(tg7
I00
S'\x9c\xeb\x18>'
tbag3
(g4
(I0
tS'b'
tRp430
(I1
(tg7
I00
S'\x0b4\xdf='
tbag3
(g4
(I0
tS'b'
tRp431
(I1
(tg7
I00
S'\xe4\x18\xe4='
tbag3
(g4
(I0
tS'b'
tRp432
(I1
(tg7
I00
S'\x86\x81\xf9='
tbag3
(g4
(I0
tS'b'
tRp433
(I1
(tg7
I00
S'G\x17\xe4='
tbag3
(g4
(I0
tS'b'
tRp434
(I1
(tg7
I00
S'\x06\xff\xd2='
tbag3
(g4
(I0
tS'b'
tRp435
(I1
(tg7
I00
S'g/\xda='
tbag3
(g4
(I0
tS'b'
tRp436
(I1
(tg7
I00
S'R\x17\xd1='
tbag3
(g4
(I0
tS'b'
tRp437
(I1
(tg7
I00
S'\xbe>\xd6='
tbag3
(g4
(I0
tS'b'
tRp438
(I1
(tg7
I00
S'b\xa9\xcd='
tbag3
(g4
(I0
tS'b'
tRp439
(I1
(tg7
I00
S'\xaa\x19\xc7='
tbag3
(g4
(I0
tS'b'
tRp440
(I1
(tg7
I00
S'"\x84\xbe='
tbag3
(g4
(I0
tS'b'
tRp441
(I1
(tg7
I00
S'<F\xb8='
tbag3
(g4
(I0
tS'b'
tRp442
(I1
(tg7
I00
S'\xfe\x89\xc7='
tbag3
(g4
(I0
tS'b'
tRp443
(I1
(tg7
I00
S'\xe2\x9c\xd2='
tbag3
(g4
(I0
tS'b'
tRp444
(I1
(tg7
I00
S'\xf7\xfd\xdf='
tbag3
(g4
(I0
tS'b'
tRp445
(I1
(tg7
I00
S'Q\x0c\x04>'
tbag3
(g4
(I0
tS'b'
tRp446
(I1
(tg7
I00
S'\xaaQ\xe8='
tbag3
(g4
(I0
tS'b'
tRp447
(I1
(tg7
I00
S'N\xe9\xf1='
tbag3
(g4
(I0
tS'b'
tRp448
(I1
(tg7
I00
S'\x819\xdc='
tbag3
(g4
(I0
tS'b'
tRp449
(I1
(tg7
I00
S'\xdb\xdd\xc7='
tbag3
(g4
(I0
tS'b'
tRp450
(I1
(tg7
I00
S'\xc6\x08\xc2='
tbag3
(g4
(I0
tS'b'
tRp451
(I1
(tg7
I00
S'\x19V\xb9='
tbag3
(g4
(I0
tS'b'
tRp452
(I1
(tg7
I00
S'l\xc9\xcd='
tbag3
(g4
(I0
tS'b'
tRp453
(I1
(tg7
I00
S'\x98g\xda='
tbag3
(g4
(I0
tS'b'
tRp454
(I1
(tg7
I00
S"\x14'\xf2="
tbag3
(g4
(I0
tS'b'
tRp455
(I1
(tg7
I00
S'C2\xe9='
tbag3
(g4
(I0
tS'b'
tRp456
(I1
(tg7
I00
S'\xef\xf3\xc7='
tbag3
(g4
(I0
tS'b'
tRp457
(I1
(tg7
I00
S'\xf77\xc4='
tbag3
(g4
(I0
tS'b'
tRp458
(I1
(tg7
I00
S'\xe4\xc0\xc5='
tbag3
(g4
(I0
tS'b'
tRp459
(I1
(tg7
I00
S'\x8b\xd8\xd0='
tbag3
(g4
(I0
tS'b'
tRp460
(I1
(tg7
I00
S'g\xce\xc2='
tbag3
(g4
(I0
tS'b'
tRp461
(I1
(tg7
I00
S'\xe1Q\xc5='
tbag3
(g4
(I0
tS'b'
tRp462
(I1
(tg7
I00
S'yG\xbe='
tbag3
(g4
(I0
tS'b'
tRp463
(I1
(tg7
I00
S'x\x05\xb4='
tbag3
(g4
(I0
tS'b'
tRp464
(I1
(tg7
I00
S'\x15(\xb6='
tbag3
(g4
(I0
tS'b'
tRp465
(I1
(tg7
I00
S'O\xff\xbc='
tbag3
(g4
(I0
tS'b'
tRp466
(I1
(tg7
I00
S'\xe2\x91\xc0='
tbag3
(g4
(I0
tS'b'
tRp467
(I1
(tg7
I00
S'9\xd0\xd0='
tbag3
(g4
(I0
tS'b'
tRp468
(I1
(tg7
I00
S'\xca7\xf7='
tbag3
(g4
(I0
tS'b'
tRp469
(I1
(tg7
I00
S',\x1f\xf3='
tbag3
(g4
(I0
tS'b'
tRp470
(I1
(tg7
I00
S'\xd4\xe4\xc6='
tbag3
(g4
(I0
tS'b'
tRp471
(I1
(tg7
I00
S'9.\xac='
tbag3
(g4
(I0
tS'b'
tRp472
(I1
(tg7
I00
S'G\x8f\x9e='
tbag3
(g4
(I0
tS'b'
tRp473
(I1
(tg7
I00
S'M\x15\x9b='
tbag3
(g4
(I0
tS'b'
tRp474
(I1
(tg7
I00
S'\xc9\r\x9a='
tbag3
(g4
(I0
tS'b'
tRp475
(I1
(tg7
I00
S'\xba\x99\x99='
tbag3
(g4
(I0
tS'b'
tRp476
(I1
(tg7
I00
S'\x9f\xb8\x98='
tbag3
(g4
(I0
tS'b'
tRp477
(I1
(tg7
I00
S'\xdb\x00\x97='
tbag3
(g4
(I0
tS'b'
tRp478
(I1
(tg7
I00
S'D\xbc\x96='
tbag3
(g4
(I0
tS'b'
tRp479
(I1
(tg7
I00
S'\xb0\x9d\x9a='
tbag3
(g4
(I0
tS'b'
tRp480
(I1
(tg7
I00
S'\x8d\xef\x97='
tbag3
(g4
(I0
tS'b'
tRp481
(I1
(tg7
I00
S'\x89o\xa0='
tbag3
(g4
(I0
tS'b'
tRp482
(I1
(tg7
I00
S'4\x19\xec='
tbag3
(g4
(I0
tS'b'
tRp483
(I1
(tg7
I00
S'\t\xea2>'
tbag3
(g4
(I0
tS'b'
tRp484
(I1
(tg7
I00
S'\xda<\x05>'
tbag3
(g4
(I0
tS'b'
tRp485
(I1
(tg7
I00
S'\xca\xde\xe6='
tbag3
(g4
(I0
tS'b'
tRp486
(I1
(tg7
I00
S'EP\xb3='
tbag3
(g4
(I0
tS'b'
tRp487
(I1
(tg7
I00
S'\xa5-\xa7='
tbag3
(g4
(I0
tS'b'
tRp488
(I1
(tg7
I00
S';\xf2\x98='
tbag3
(g4
(I0
tS'b'
tRp489
(I1
(tg7
I00
S'RO\x93='
tbag3
(g4
(I0
tS'b'
tRp490
(I1
(tg7
I00
S'\x0b\xc5\x8f='
tbag3
(g4
(I0
tS'b'
tRp491
(I1
(tg7
I00
S'\x02\xec\x8d='
tbag3
(g4
(I0
tS'b'
tRp492
(I1
(tg7
I00
S'k\x84\x8d='
tbag3
(g4
(I0
tS'b'
tRp493
(I1
(tg7
I00
S'\xbe\xe0\x8c='
tbag3
(g4
(I0
tS'b'
tRp494
(I1
(tg7
I00
S'\x0e\xb8\x8b='
tbag3
(g4
(I0
tS'b'
tRp495
(I1
(tg7
I00
S'\xc1\xe0\x93='
tbag3
(g4
(I0
tS'b'
tRp496
(I1
(tg7
I00
S'o\xd1\x94='
tbag3
(g4
(I0
tS'b'
tRp497
(I1
(tg7
I00
S'\x00}\xbe='
tbag3
(g4
(I0
tS'b'
tRp498
(I1
(tg7
I00
S'\xefF\x0b>'
tbag3
(g4
(I0
tS'b'
tRp499
(I1
(tg7
I00
S'\x86G\x16>'
tbag3
(g4
(I0
tS'b'
tRp500
(I1
(tg7
I00
S'\xc9\x07\xc5='
tbag3
(g4
(I0
tS'b'
tRp501
(I1
(tg7
I00
S']e\xa5='
tbag3
(g4
(I0
tS'b'
tRp502
(I1
(tg7
I00
S"]'\xa7="
tbag3
(g4
(I0
tS'b'
tRp503
(I1
(tg7
I00
S'\xe3\xe7\x9b='
tbag3
(g4
(I0
tS'b'
tRp504
(I1
(tg7
I00
S'\x9ef\x9d='
tbag3
(g4
(I0
tS'b'
tRp505
(I1
(tg7
I00
S'\x1c\xda\x9f='
tbag3
(g4
(I0
tS'b'
tRp506
(I1
(tg7
I00
S'\xc6\x8a\x96='
tbag3
(g4
(I0
tS'b'
tRp507
(I1
(tg7
I00
S'\xaa\x07\x94='
tbag3
(g4
(I0
tS'b'
tRp508
(I1
(tg7
I00
S'\xfet\x95='
tbag3
(g4
(I0
tS'b'
tRp509
(I1
(tg7
I00
S'\xc7?\x9f='
tbag3
(g4
(I0
tS'b'
tRp510
(I1
(tg7
I00
S'\x0e{\x9f='
tbag3
(g4
(I0
tS'b'
tRp511
(I1
(tg7
I00
S'\xc6}\xa6='
tbag3
(g4
(I0
tS'b'
tRp512
(I1
(tg7
I00
S'\xa4k\xa9='
tbag3
(g4
(I0
tS'b'
tRp513
(I1
(tg7
I00
S'\x0b\x9d\xa5='
tbag3
(g4
(I0
tS'b'
tRp514
(I1
(tg7
I00
S'\n\xb9\xae='
tbag3
(g4
(I0
tS'b'
tRp515
(I1
(tg7
I00
S'\xd0;\xbc='
tbag3
(g4
(I0
tS'b'
tRp516
(I1
(tg7
I00
S'o}\xb5='
tbag3
(g4
(I0
tS'b'
tRp517
(I1
(tg7
I00
S'\xd3z\xbb='
tbag3
(g4
(I0
tS'b'
tRp518
(I1
(tg7
I00
S'\xf9\x03\xca='
tbag3
(g4
(I0
tS'b'
tRp519
(I1
(tg7
I00
S'}I\xb5='
tbag3
(g4
(I0
tS'b'
tRp520
(I1
(tg7
I00
S'D7\x9d='
tbag3
(g4
(I0
tS'b'
tRp521
(I1
(tg7
I00
S'5\xc5\x8c='
tbag3
(g4
(I0
tS'b'
tRp522
(I1
(tg7
I00
S'\xb0\x14\x82='
tbag3
(g4
(I0
tS'b'
tRp523
(I1
(tg7
I00
S'\x12\x0c~='
tbag3
(g4
(I0
tS'b'
tRp524
(I1
(tg7
I00
S'}\x12|='
tbag3
(g4
(I0
tS'b'
tRp525
(I1
(tg7
I00
S'\xaf\xeaz='
tbag3
(g4
(I0
tS'b'
tRp526
(I1
(tg7
I00
S'\xaaiz='
tbag3
(g4
(I0
tS'b'
tRp527
(I1
(tg7
I00
S'\xa6\xa9\x80='
tbag3
(g4
(I0
tS'b'
tRp528
(I1
(tg7
I00
S'\x985\x93='
tbag3
(g4
(I0
tS'b'
tRp529
(I1
(tg7
I00
S'7\x9a\xce='
tbag3
(g4
(I0
tS'b'
tRp530
(I1
(tg7
I00
S'^\xb0\xde='
tbag3
(g4
(I0
tS'b'
tRp531
(I1
(tg7
I00
S'\xd3\xa0\x02>'
tbag3
(g4
(I0
tS'b'
tRp532
(I1
(tg7
I00
S"\xc6'\xe6="
tbag3
(g4
(I0
tS'b'
tRp533
(I1
(tg7
I00
S'\xf0O\xb1='
tbag3
(g4
(I0
tS'b'
tRp534
(I1
(tg7
I00
S'\x8d\xeb\x8e='
tbag3
(g4
(I0
tS'b'
tRp535
(I1
(tg7
I00
S'K<\x92='
tbag3
(g4
(I0
tS'b'
tRp536
(I1
(tg7
I00
S'\xb7\xe4\x8c='
tbag3
(g4
(I0
tS'b'
tRp537
(I1
(tg7
I00
S'\xca\xa0\x8e='
tbag3
(g4
(I0
tS'b'
tRp538
(I1
(tg7
I00
S'x\x9d\x88='
tbag3
(g4
(I0
tS'b'
tRp539
(I1
(tg7
I00
S'YK\x83='
tbag3
(g4
(I0
tS'b'
tRp540
(I1
(tg7
I00
S'\xe5*\x7f='
tbag3
(g4
(I0
tS'b'
tRp541
(I1
(tg7
I00
S'\xeaGy='
tbag3
(g4
(I0
tS'b'
tRp542
(I1
(tg7
I00
S'\xf4)\x83='
tbag3
(g4
(I0
tS'b'
tRp543
(I1
(tg7
I00
S'\xbb\x95\x90='
tbag3
(g4
(I0
tS'b'
tRp544
(I1
(tg7
I00
S'\xd1\xb0\xa0='
tbag3
(g4
(I0
tS'b'
tRp545
(I1
(tg7
I00
S'"R\xde='
tbag3
(g4
(I0
tS'b'
tRp546
(I1
(tg7
I00
S'\xb9^\xc0='
tbag3
(g4
(I0
tS'b'
tRp547
(I1
(tg7
I00
S'\x94\x88\xca='
tbag3
(g4
(I0
tS'b'
tRp548
(I1
(tg7
I00
S'\xcb\x1c\xb3='
tbag3
(g4
(I0
tS'b'
tRp549
(I1
(tg7
I00
S'\xed\x0f\x9b='
tbag3
(g4
(I0
tS'b'
tRp550
(I1
(tg7
I00
S'd\xef\x85='
tbag3
(g4
(I0
tS'b'
tRp551
(I1
(tg7
I00
S'4\xf0\x7f='
tbag3
(g4
(I0
tS'b'
tRp552
(I1
(tg7
I00
S'\tG\x8c='
tbag3
(g4
(I0
tS'b'
tRp553
(I1
(tg7
I00
S'\xd80\x8d='
tbag3
(g4
(I0
tS'b'
tRp554
(I1
(tg7
I00
S'D\x01\x98='
tbag3
(g4
(I0
tS'b'
tRp555
(I1
(tg7
I00
S'*\x19\xa8='
tbag3
(g4
(I0
tS'b'
tRp556
(I1
(tg7
I00
S' \xb5\x98='
tbag3
(g4
(I0
tS'b'
tRp557
(I1
(tg7
I00
S'p\x18\x93='
tbag3
(g4
(I0
tS'b'
tRp558
(I1
(tg7
I00
S'\x82\x03\x91='
tbag3
(g4
(I0
tS'b'
tRp559
(I1
(tg7
I00
S'\x8e\x8d\x96='
tbag3
(g4
(I0
tS'b'
tRp560
(I1
(tg7
I00
S'\xad\xf7\x8f='
tbag3
(g4
(I0
tS'b'
tRp561
(I1
(tg7
I00
S'\xd3\xa6\x8f='
tbag3
(g4
(I0
tS'b'
tRp562
(I1
(tg7
I00
S'\xb4\xcd\x8b='
tbag3
(g4
(I0
tS'b'
tRp563
(I1
(tg7
I00
S'\xb3\xf9\x83='
tbag3
(g4
(I0
tS'b'
tRp564
(I1
(tg7
I00
S'K\xb1\x89='
tbag3
(g4
(I0
tS'b'
tRp565
(I1
(tg7
I00
S'\x9dU\x96='
tbag3
(g4
(I0
tS'b'
tRp566
(I1
(tg7
I00
S'?\xc3\x9a='
tbag3
(g4
(I0
tS'b'
tRp567
(I1
(tg7
I00
S'\xaf\xaa\xae='
tbag3
(g4
(I0
tS'b'
tRp568
(I1
(tg7
I00
S'.\xa6\xc7='
tbag3
(g4
(I0
tS'b'
tRp569
(I1
(tg7
I00
S'x\xee\xb5='
tbag3
(g4
(I0
tS'b'
tRp570
(I1
(tg7
I00
S'\xba\xba\x94='
tbag3
(g4
(I0
tS'b'
tRp571
(I1
(tg7
I00
S'`"\x80='
tbag3
(g4
(I0
tS'b'
tRp572
(I1
(tg7
I00
S'\x06zd='
tbag3
(g4
(I0
tS'b'
tRp573
(I1
(tg7
I00
S'\x94\xb4[='
tbag3
(g4
(I0
tS'b'
tRp574
(I1
(tg7
I00
S'wVY='
tbag3
(g4
(I0
tS'b'
tRp575
(I1
(tg7
I00
S'\xb7\xe9Y='
tbag3
(g4
(I0
tS'b'
tRp576
(I1
(tg7
I00
S'\xc2\x0b^='
tbag3
(g4
(I0
tS'b'
tRp577
(I1
(tg7
I00
S'\xcaWs='
tbag3
(g4
(I0
tS'b'
tRp578
(I1
(tg7
I00
S'\xf0E\x9b='
tbag3
(g4
(I0
tS'b'
tRp579
(I1
(tg7
I00
S'P3\xe1='
tbag3
(g4
(I0
tS'b'
tRp580
(I1
(tg7
I00
S'D\xa0\xc5='
tbag3
(g4
(I0
tS'b'
tRp581
(I1
(tg7
I00
S'\xef\x10\xc6='
tbag3
(g4
(I0
tS'b'
tRp582
(I1
(tg7
I00
S'\x18\x81\xb6='
tbag3
(g4
(I0
tS'b'
tRp583
(I1
(tg7
I00
S'jF\x98='
tbag3
(g4
(I0
tS'b'
tRp584
(I1
(tg7
I00
S'j\xec~='
tbag3
(g4
(I0
tS'b'
tRp585
(I1
(tg7
I00
S'rk\x87='
tbag3
(g4
(I0
tS'b'
tRp586
(I1
(tg7
I00
S' \xdb\x82='
tbag3
(g4
(I0
tS'b'
tRp587
(I1
(tg7
I00
S'\xb0\x16\x85='
tbag3
(g4
(I0
tS'b'
tRp588
(I1
(tg7
I00
S'\xa9\xf7|='
tbag3
(g4
(I0
tS'b'
tRp589
(I1
(tg7
I00
S'<\x81o='
tbag3
(g4
(I0
tS'b'
tRp590
(I1
(tg7
I00
S'\xb2\xfeg='
tbag3
(g4
(I0
tS'b'
tRp591
(I1
(tg7
I00
S'$\x18c='
tbag3
(g4
(I0
tS'b'
tRp592
(I1
(tg7
I00
S'\xdd\x1ew='
tbag3
(g4
(I0
tS'b'
tRp593
(I1
(tg7
I00
S'=\x8c\x8f='
tbag3
(g4
(I0
tS'b'
tRp594
(I1
(tg7
I00
S']\xcc\x9d='
tbag3
(g4
(I0
tS'b'
tRp595
(I1
(tg7
I00
S'\x18\xcd\xcc='
tbag3
(g4
(I0
tS'b'
tRp596
(I1
(tg7
I00
S'\x05\xb7\xa5='
tbag3
(g4
(I0
tS'b'
tRp597
(I1
(tg7
I00
S'\r`\xa9='
tbag3
(g4
(I0
tS'b'
tRp598
(I1
(tg7
I00
S'\x82\xc7\x9a='
tbag3
(g4
(I0
tS'b'
tRp599
(I1
(tg7
I00
S'\x10\xc1\x8a='
tbag3
(g4
(I0
tS'b'
tRp600
(I1
(tg7
I00
S'k\xc0q='
tbag3
(g4
(I0
tS'b'
tRp601
(I1
(tg7
I00
S'\xa2Th='
tbag3
(g4
(I0
tS'b'
tRp602
(I1
(tg7
I00
S'0f\x81='
tbag3
(g4
(I0
tS'b'
tRp603
(I1
(tg7
I00
S')\t\x83='
tbag3
(g4
(I0
tS'b'
tRp604
(I1
(tg7
I00
S'$\xe6\x8d='
tbag3
(g4
(I0
tS'b'
tRp605
(I1
(tg7
I00
S'\xad\x19\x9f='
tbag3
(g4
(I0
tS'b'
tRp606
(I1
(tg7
I00
S'\x91}\x8e='
tbag3
(g4
(I0
tS'b'
tRp607
(I1
(tg7
I00
S'P\xa2\x86='
tbag3
(g4
(I0
tS'b'
tRp608
(I1
(tg7
I00
S'\x03k\x82='
tbag3
(g4
(I0
tS'b'
tRp609
(I1
(tg7
I00
S'WA\x85='
tbag3
(g4
(I0
tS'b'
tRp610
(I1
(tg7
I00
S'\x82\x01\x80='
tbag3
(g4
(I0
tS'b'
tRp611
(I1
(tg7
I00
S'\x10\xe8~='
tbag3
(g4
(I0
tS'b'
tRp612
(I1
(tg7
I00
S'\x0b\xcey='
tbag3
(g4
(I0
tS'b'
tRp613
(I1
(tg7
I00
S'\x0e\xa1l='
tbag3
(g4
(I0
tS'b'
tRp614
(I1
(tg7
I00
S'\xbd\xbaz='
tbag3
(g4
(I0
tS'b'
tRp615
(I1
(tg7
I00
S'\x8b\x12\x8c='
tbag3
(g4
(I0
tS'b'
tRp616
(I1
(tg7
I00
S'\x80\xcc\x90='
tbag3
(g4
(I0
tS'b'
tRp617
(I1
(tg7
I00
S'\xf3\x95\xa4='
tbag3
(g4
(I0
tS'b'
tRp618
(I1
(tg7
I00
S'B\x1b\xb8='
tbag3
(g4
(I0
tS'b'
tRp619
(I1
(tg7
I00
S'\xa5\xdb\xa6='
tbag3
(g4
(I0
tS'b'
tRp620
(I1
(tg7
I00
S'\\$\x87='
tbag3
(g4
(I0
tS'b'
tRp621
(I1
(tg7
I00
S'bZf='
tbag3
(g4
(I0
tS'b'
tRp622
(I1
(tg7
I00
S'0\xbcJ='
tbag3
(g4
(I0
tS'b'
tRp623
(I1
(tg7
I00
S'\x95\xacA='
tbag3
(g4
(I0
tS'b'
tRp624
(I1
(tg7
I00
S'\xf8\x8c?='
tbag3
(g4
(I0
tS'b'
tRp625
(I1
(tg7
I00
S'\xddtA='
tbag3
(g4
(I0
tS'b'
tRp626
(I1
(tg7
I00
S'\xad\xd6H='
tbag3
(g4
(I0
tS'b'
tRp627
(I1
(tg7
I00
S'\x8aSd='
tbag3
(g4
(I0
tS'b'
tRp628
(I1
(tg7
I00
S'$j\x98='
tbag3
(g4
(I0
tS'b'
tRp629
(I1
(tg7
I00
S'\xdb\xf6\xdc='
tbag3
(g4
(I0
tS'b'
tRp630
(I1
(tg7
I00
S'\x90\xd0\xb5='
tbag3
(g4
(I0
tS'b'
tRp631
(I1
(tg7
I00
S'=\x16\xb0='
tbag3
(g4
(I0
tS'b'
tRp632
(I1
(tg7
I00
S'\xe7\xe9\xa1='
tbag3
(g4
(I0
tS'b'
tRp633
(I1
(tg7
I00
S'\xf25\x87='
tbag3
(g4
(I0
tS'b'
tRp634
(I1
(tg7
I00
S'\xb5\xabc='
tbag3
(g4
(I0
tS'b'
tRp635
(I1
(tg7
I00
S'\x00\x7fu='
tbag3
(g4
(I0
tS'b'
tRp636
(I1
(tg7
I00
S']\xc9o='
tbag3
(g4
(I0
tS'b'
tRp637
(I1
(tg7
I00
S'\x80[t='
tbag3
(g4
(I0
tS'b'
tRp638
(I1
(tg7
I00
S'P\x1ei='
tbag3
(g4
(I0
tS'b'
tRp639
(I1
(tg7
I00
S'\xe7\xc4[='
tbag3
(g4
(I0
tS'b'
tRp640
(I1
(tg7
I00
S'\x1c\x0eU='
tbag3
(g4
(I0
tS'b'
tRp641
(I1
(tg7
I00
S'\xe0mQ='
tbag3
(g4
(I0
tS'b'
tRp642
(I1
(tg7
I00
S'\xbd~i='
tbag3
(g4
(I0
tS'b'
tRp643
(I1
(tg7
I00
S'\x05\xf3\x8b='
tbag3
(g4
(I0
tS'b'
tRp644
(I1
(tg7
I00
S'\xd1\xb2\x96='
tbag3
(g4
(I0
tS'b'
tRp645
(I1
(tg7
I00
S'\x06\x14\xbb='
tbag3
(g4
(I0
tS'b'
tRp646
(I1
(tg7
I00
S'\xffi\x95='
tbag3
(g4
(I0
tS'b'
tRp647
(I1
(tg7
I00
S'}.\x97='
tbag3
(g4
(I0
tS'b'
tRp648
(I1
(tg7
I00
S'\xd0)\x8c='
tbag3
(g4
(I0
tS'b'
tRp649
(I1
(tg7
I00
S'x\x10\x7f='
tbag3
(g4
(I0
tS'b'
tRp650
(I1
(tg7
I00
S'\x0f\x05^='
tbag3
(g4
(I0
tS'b'
tRp651
(I1
(tg7
I00
S'5\xc4U='
tbag3
(g4
(I0
tS'b'
tRp652
(I1
(tg7
I00
S'\x188q='
tbag3
(g4
(I0
tS'b'
tRp653
(I1
(tg7
I00
S'>\x9ar='
tbag3
(g4
(I0
tS'b'
tRp654
(I1
(tg7
I00
S'/#\x84='
tbag3
(g4
(I0
tS'b'
tRp655
(I1
(tg7
I00
S'@\x8f\x95='
tbag3
(g4
(I0
tS'b'
tRp656
(I1
(tg7
I00
S'\xb5\xc3\x85='
tbag3
(g4
(I0
tS'b'
tRp657
(I1
(tg7
I00
S'\xdc\x91x='
tbag3
(g4
(I0
tS'b'
tRp658
(I1
(tg7
I00
S'\xab\xfan='
tbag3
(g4
(I0
tS'b'
tRp659
(I1
(tg7
I00
S'C\x91r='
tbag3
(g4
(I0
tS'b'
tRp660
(I1
(tg7
I00
S'j\xebj='
tbag3
(g4
(I0
tS'b'
tRp661
(I1
(tg7
I00
S'b\xedi='
tbag3
(g4
(I0
tS'b'
tRp662
(I1
(tg7
I00
S'7\xafe='
tbag3
(g4
(I0
tS'b'
tRp663
(I1
(tg7
I00
S'\xac\xc2Y='
tbag3
(g4
(I0
tS'b'
tRp664
(I1
(tg7
I00
S'\xd7\x9ai='
tbag3
(g4
(I0
tS'b'
tRp665
(I1
(tg7
I00
S'KS\x84='
tbag3
(g4
(I0
tS'b'
tRp666
(I1
(tg7
I00
S'\x19:\x88='
tbag3
(g4
(I0
tS'b'
tRp667
(I1
(tg7
I00
S'.\\\x9a='
tbag3
(g4
(I0
tS'b'
tRp668
(I1
(tg7
I00
S'\x01\xed\xa8='
tbag3
(g4
(I0
tS'b'
tRp669
(I1
(tg7
I00
S'\xa81\x98='
tbag3
(g4
(I0
tS'b'
tRp670
(I1
(tg7
I00
S'|\x17w='
tbag3
(g4
(I0
tS'b'
tRp671
(I1
(tg7
I00
S'\xf0\xfcQ='
tbag3
(g4
(I0
tS'b'
tRp672
(I1
(tg7
I00
S'x\xb57='
tbag3
(g4
(I0
tS'b'
tRp673
(I1
(tg7
I00
S'4o.='
tbag3
(g4
(I0
tS'b'
tRp674
(I1
(tg7
I00
S'\xc1\xdb,='
tbag3
(g4
(I0
tS'b'
tRp675
(I1
(tg7
I00
S'\xdd\xd11='
tbag3
(g4
(I0
tS'b'
tRp676
(I1
(tg7
I00
S'O\xfe>='
tbag3
(g4
(I0
tS'b'
tRp677
(I1
(tg7
I00
S'}\xd3f='
tbag3
(g4
(I0
tS'b'
tRp678
(I1
(tg7
I00
S'\x0b\xca\xa0='
tbag3
(g4
(I0
tS'b'
tRp679
(I1
(tg7
I00
S'\x00x\xdc='
tbag3
(g4
(I0
tS'b'
tRp680
(I1
(tg7
I00
S'\xaf@\xa1='
tbag3
(g4
(I0
tS'b'
tRp681
(I1
(tg7
I00
S's\xa9\x91='
tbag3
(g4
(I0
tS'b'
tRp682
(I1
(tg7
I00
S'Cv\x89='
tbag3
(g4
(I0
tS'b'
tRp683
(I1
(tg7
I00
S'rem='
tbag3
(g4
(I0
tS'b'
tRp684
(I1
(tg7
I00
S'u/N='
tbag3
(g4
(I0
tS'b'
tRp685
(I1
(tg7
I00
S'\x80We='
tbag3
(g4
(I0
tS'b'
tRp686
(I1
(tg7
I00
S'\x13>c='
tbag3
(g4
(I0
tS'b'
tRp687
(I1
(tg7
I00
S'\x10\xf3j='
tbag3
(g4
(I0
tS'b'
tRp688
(I1
(tg7
I00
S'`U`='
tbag3
(g4
(I0
tS'b'
tRp689
(I1
(tg7
I00
S'\xde\x1aR='
tbag3
(g4
(I0
tS'b'
tRp690
(I1
(tg7
I00
S'\xb2\xc9J='
tbag3
(g4
(I0
tS'b'
tRp691
(I1
(tg7
I00
S')zG='
tbag3
(g4
(I0
tS'b'
tRp692
(I1
(tg7
I00
S'{\xa2a='
tbag3
(g4
(I0
tS'b'
tRp693
(I1
(tg7
I00
S'\x06\x8c\x88='
tbag3
(g4
(I0
tS'b'
tRp694
(I1
(tg7
I00
S'P\x10\x8d='
tbag3
(g4
(I0
tS'b'
tRp695
(I1
(tg7
I00
S"\xa6'\xa8="
tbag3
(g4
(I0
tS'b'
tRp696
(I1
(tg7
I00
S't\xb1\x86='
tbag3
(g4
(I0
tS'b'
tRp697
(I1
(tg7
I00
S'}+\x88='
tbag3
(g4
(I0
tS'b'
tRp698
(I1
(tg7
I00
S'\xcd\x00\x81='
tbag3
(g4
(I0
tS'b'
tRp699
(I1
(tg7
I00
S'lfp='
tbag3
(g4
(I0
tS'b'
tRp700
(I1
(tg7
I00
S'\xdb\nQ='
tbag3
(g4
(I0
tS'b'
tRp701
(I1
(tg7
I00
S'\xb3^J='
tbag3
(g4
(I0
tS'b'
tRp702
(I1
(tg7
I00
S'F\xb5e='
tbag3
(g4
(I0
tS'b'
tRp703
(I1
(tg7
I00
S'o{f='
tbag3
(g4
(I0
tS'b'
tRp704
(I1
(tg7
I00
S'\xbe\xb9y='
tbag3
(g4
(I0
tS'b'
tRp705
(I1
(tg7
I00
S'73\x8d='
tbag3
(g4
(I0
tS'b'
tRp706
(I1
(tg7
I00
S'/u{='
tbag3
(g4
(I0
tS'b'
tRp707
(I1
(tg7
I00
S'^1g='
tbag3
(g4
(I0
tS'b'
tRp708
(I1
(tg7
I00
S'\xdd\xd3\\='
tbag3
(g4
(I0
tS'b'
tRp709
(I1
(tg7
I00
S'\xa9\xbe^='
tbag3
(g4
(I0
tS'b'
tRp710
(I1
(tg7
I00
S'\x95;X='
tbag3
(g4
(I0
tS'b'
tRp711
(I1
(tg7
I00
S'\xca7W='
tbag3
(g4
(I0
tS'b'
tRp712
(I1
(tg7
I00
S'b\xe5T='
tbag3
(g4
(I0
tS'b'
tRp713
(I1
(tg7
I00
S'\xa7\x10J='
tbag3
(g4
(I0
tS'b'
tRp714
(I1
(tg7
I00
S'\x99U\\='
tbag3
(g4
(I0
tS'b'
tRp715
(I1
(tg7
I00
S'\xe9\x9b~='
tbag3
(g4
(I0
tS'b'
tRp716
(I1
(tg7
I00
S'\xab\xe4\x82='
tbag3
(g4
(I0
tS'b'
tRp717
(I1
(tg7
I00
S'\xbcJ\x93='
tbag3
(g4
(I0
tS'b'
tRp718
(I1
(tg7
I00
S'tN\x9d='
tbag3
(g4
(I0
tS'b'
tRp719
(I1
(tg7
I00
S'\xad\xa1\x8b='
tbag3
(g4
(I0
tS'b'
tRp720
(I1
(tg7
I00
S'I\x82d='
tbag3
(g4
(I0
tS'b'
tRp721
(I1
(tg7
I00
S'\x9eWB='
tbag3
(g4
(I0
tS'b'
tRp722
(I1
(tg7
I00
S'G\xba(='
tbag3
(g4
(I0
tS'b'
tRp723
(I1
(tg7
I00
S'\x15\x95\x1f='
tbag3
(g4
(I0
tS'b'
tRp724
(I1
(tg7
I00
S'y\xcc\x1e='
tbag3
(g4
(I0
tS'b'
tRp725
(I1
(tg7
I00
S'\xc7\x81&='
tbag3
(g4
(I0
tS'b'
tRp726
(I1
(tg7
I00
S'@\xae8='
tbag3
(g4
(I0
tS'b'
tRp727
(I1
(tg7
I00
S'w\x94h='
tbag3
(g4
(I0
tS'b'
tRp728
(I1
(tg7
I00
S'\xaa\x84\xa3='
tbag3
(g4
(I0
tS'b'
tRp729
(I1
(tg7
I00
S'e\x81\xd3='
tbag3
(g4
(I0
tS'b'
tRp730
(I1
(tg7
I00
S'\r4\x92='
tbag3
(g4
(I0
tS'b'
tRp731
(I1
(tg7
I00
S'\x9b\xb2{='
tbag3
(g4
(I0
tS'b'
tRp732
(I1
(tg7
I00
S'J\xd0r='
tbag3
(g4
(I0
tS'b'
tRp733
(I1
(tg7
I00
S'\xee\x80U='
tbag3
(g4
(I0
tS'b'
tRp734
(I1
(tg7
I00
S'\xa7F=='
tbag3
(g4
(I0
tS'b'
tRp735
(I1
(tg7
I00
S'\xe1\x02X='
tbag3
(g4
(I0
tS'b'
tRp736
(I1
(tg7
I00
S'\x0e\xe7Y='
tbag3
(g4
(I0
tS'b'
tRp737
(I1
(tg7
I00
S'x\x90e='
tbag3
(g4
(I0
tS'b'
tRp738
(I1
(tg7
I00
S'\xd5G[='
tbag3
(g4
(I0
tS'b'
tRp739
(I1
(tg7
I00
S'8yK='
tbag3
(g4
(I0
tS'b'
tRp740
(I1
(tg7
I00
S'\xc7\xc1B='
tbag3
(g4
(I0
tS'b'
tRp741
(I1
(tg7
I00
S'\xf0\xab>='
tbag3
(g4
(I0
tS'b'
tRp742
(I1
(tg7
I00
S'\x81\xc3W='
tbag3
(g4
(I0
tS'b'
tRp743
(I1
(tg7
I00
S'\x05\x93\x81='
tbag3
(g4
(I0
tS'b'
tRp744
(I1
(tg7
I00
S't\xa3\x82='
tbag3
(g4
(I0
tS'b'
tRp745
(I1
(tg7
I00
S'2\xaa\x99='
tbag3
(g4
(I0
tS'b'
tRp746
(I1
(tg7
I00
S'\x06\x0bz='
tbag3
(g4
(I0
tS'b'
tRp747
(I1
(tg7
I00
S'=\xc6}='
tbag3
(g4
(I0
tS'b'
tRp748
(I1
(tg7
I00
S'.Vs='
tbag3
(g4
(I0
tS'b'
tRp749
(I1
(tg7
I00
S's\x8cd='
tbag3
(g4
(I0
tS'b'
tRp750
(I1
(tg7
I00
S'\xf4\xb9E='
tbag3
(g4
(I0
tS'b'
tRp751
(I1
(tg7
I00
S'\xe0\x1d?='
tbag3
(g4
(I0
tS'b'
tRp752
(I1
(tg7
I00
S'\xf5IY='
tbag3
(g4
(I0
tS'b'
tRp753
(I1
(tg7
I00
S'$\x94Y='
tbag3
(g4
(I0
tS'b'
tRp754
(I1
(tg7
I00
S'\x99\x10j='
tbag3
(g4
(I0
tS'b'
tRp755
(I1
(tg7
I00
S'r\x94\x84='
tbag3
(g4
(I0
tS'b'
tRp756
(I1
(tg7
I00
S'\x859n='
tbag3
(g4
(I0
tS'b'
tRp757
(I1
(tg7
I00
S'\xc2\xfaY='
tbag3
(g4
(I0
tS'b'
tRp758
(I1
(tg7
I00
S'"\xd1O='
tbag3
(g4
(I0
tS'b'
tRp759
(I1
(tg7
I00
S'\x10\x18Q='
tbag3
(g4
(I0
tS'b'
tRp760
(I1
(tg7
I00
S'\xe5QK='
tbag3
(g4
(I0
tS'b'
tRp761
(I1
(tg7
I00
S'*\xd1J='
tbag3
(g4
(I0
tS'b'
tRp762
(I1
(tg7
I00
S'\x05\xb3I='
tbag3
(g4
(I0
tS'b'
tRp763
(I1
(tg7
I00
S'\xebD>='
tbag3
(g4
(I0
tS'b'
tRp764
(I1
(tg7
I00
S'N\x7fR='
tbag3
(g4
(I0
tS'b'
tRp765
(I1
(tg7
I00
S'E\xb6t='
tbag3
(g4
(I0
tS'b'
tRp766
(I1
(tg7
I00
S'\x8f\xb8y='
tbag3
(g4
(I0
tS'b'
tRp767
(I1
(tg7
I00
S'\xad\r\x8b='
tbag3
(g4
(I0
tS'b'
tRp768
(I1
(tg7
I00
S'\xf1\x8a\x92='
tbag3
(g4
(I0
tS'b'
tRp769
(I1
(tg7
I00
S'\x0bN\x82='
tbag3
(g4
(I0
tS'b'
tRp770
(I1
(tg7
I00
S'TiV='
tbag3
(g4
(I0
tS'b'
tRp771
(I1
(tg7
I00
S'\x9ex6='
tbag3
(g4
(I0
tS'b'
tRp772
(I1
(tg7
I00
S'$\xaa\x1d='
tbag3
(g4
(I0
tS'b'
tRp773
(I1
(tg7
I00
S'I\x87\x14='
tbag3
(g4
(I0
tS'b'
tRp774
(I1
(tg7
I00
S'\x97\x06\x15='
tbag3
(g4
(I0
tS'b'
tRp775
(I1
(tg7
I00
S'\xa4w ='
tbag3
(g4
(I0
tS'b'
tRp776
(I1
(tg7
I00
S'$\xd37='
tbag3
(g4
(I0
tS'b'
tRp777
(I1
(tg7
I00
S'7\xf6n='
tbag3
(g4
(I0
tS'b'
tRp778
(I1
(tg7
I00
S'+\xb7\xa2='
tbag3
(g4
(I0
tS'b'
tRp779
(I1
(tg7
I00
S')\x12\xc4='
tbag3
(g4
(I0
tS'b'
tRp780
(I1
(tg7
I00
S'\xf7u\x84='
tbag3
(g4
(I0
tS'b'
tRp781
(I1
(tg7
I00
S'\x82D`='
tbag3
(g4
(I0
tS'b'
tRp782
(I1
(tg7
I00
S'{v\\='
tbag3
(g4
(I0
tS'b'
tRp783
(I1
(tg7
I00
S'\xc7>D='
tbag3
(g4
(I0
tS'b'
tRp784
(I1
(tg7
I00
S'<\xf9/='
tbag3
(g4
(I0
tS'b'
tRp785
(I1
(tg7
I00
S'<^L='
tbag3
(g4
(I0
tS'b'
tRp786
(I1
(tg7
I00
S'7\xa4O='
tbag3
(g4
(I0
tS'b'
tRp787
(I1
(tg7
I00
S'\xf9\xab]='
tbag3
(g4
(I0
tS'b'
tRp788
(I1
(tg7
I00
S'L\xa6T='
tbag3
(g4
(I0
tS'b'
tRp789
(I1
(tg7
I00
S'\xf4\x8aE='
tbag3
(g4
(I0
tS'b'
tRp790
(I1
(tg7
I00
S'\xaa%<='
tbag3
(g4
(I0
tS'b'
tRp791
(I1
(tg7
I00
S'\xaf\x0c8='
tbag3
(g4
(I0
tS'b'
tRp792
(I1
(tg7
I00
S'\\\xa5N='
tbag3
(g4
(I0
tS'b'
tRp793
(I1
(tg7
I00
S'\xde\xc8t='
tbag3
(g4
(I0
tS'b'
tRp794
(I1
(tg7
I00
S'p\xbfs='
tbag3
(g4
(I0
tS'b'
tRp795
(I1
(tg7
I00
S'8"\x8e='
tbag3
(g4
(I0
tS'b'
tRp796
(I1
(tg7
I00
S'\x02\xc3j='
tbag3
(g4
(I0
tS'b'
tRp797
(I1
(tg7
I00
S'\xd9uo='
tbag3
(g4
(I0
tS'b'
tRp798
(I1
(tg7
I00
S'\x00eg='
tbag3
(g4
(I0
tS'b'
tRp799
(I1
(tg7
I00
S'jL[='
tbag3
(g4
(I0
tS'b'
tRp800
(I1
(tg7
I00
S' \x94<='
tbag3
(g4
(I0
tS'b'
tRp801
(I1
(tg7
I00
S'>\xf16='
tbag3
(g4
(I0
tS'b'
tRp802
(I1
(tg7
I00
S'\n7O='
tbag3
(g4
(I0
tS'b'
tRp803
(I1
(tg7
I00
S'\x04\nM='
tbag3
(g4
(I0
tS'b'
tRp804
(I1
(tg7
I00
S'bB\\='
tbag3
(g4
(I0
tS'b'
tRp805
(I1
(tg7
I00
S'\xa6\xcfy='
tbag3
(g4
(I0
tS'b'
tRp806
(I1
(tg7
I00
S'\xe4\x15d='
tbag3
(g4
(I0
tS'b'
tRp807
(I1
(tg7
I00
S'\xbbLQ='
tbag3
(g4
(I0
tS'b'
tRp808
(I1
(tg7
I00
S'\xd4`G='
tbag3
(g4
(I0
tS'b'
tRp809
(I1
(tg7
I00
S'P\xf9F='
tbag3
(g4
(I0
tS'b'
tRp810
(I1
(tg7
I00
S'JbA='
tbag3
(g4
(I0
tS'b'
tRp811
(I1
(tg7
I00
S'\xf4h@='
tbag3
(g4
(I0
tS'b'
tRp812
(I1
(tg7
I00
S'\x94\xd4?='
tbag3
(g4
(I0
tS'b'
tRp813
(I1
(tg7
I00
S'\xe7\xc73='
tbag3
(g4
(I0
tS'b'
tRp814
(I1
(tg7
I00
S'\xe4\xd2I='
tbag3
(g4
(I0
tS'b'
tRp815
(I1
(tg7
I00
S'\x97\xf4k='
tbag3
(g4
(I0
tS'b'
tRp816
(I1
(tg7
I00
S'\x8e\x85p='
tbag3
(g4
(I0
tS'b'
tRp817
(I1
(tg7
I00
S'&\xe3\x84='
tbag3
(g4
(I0
tS'b'
tRp818
(I1
(tg7
I00
S'\x9a\x02\x8a='
tbag3
(g4
(I0
tS'b'
tRp819
(I1
(tg7
I00
S'\xbe\x06u='
tbag3
(g4
(I0
tS'b'
tRp820
(I1
(tg7
I00
S'D\xf4J='
tbag3
(g4
(I0
tS'b'
tRp821
(I1
(tg7
I00
S'\x85\xdb,='
tbag3
(g4
(I0
tS'b'
tRp822
(I1
(tg7
I00
S'\x17y\x14='
tbag3
(g4
(I0
tS'b'
tRp823
(I1
(tg7
I00
S'\xeb\x8d\x0b='
tbag3
(g4
(I0
tS'b'
tRp824
(I1
(tg7
I00
S'T\x07\r='
tbag3
(g4
(I0
tS'b'
tRp825
(I1
(tg7
I00
S'\xe8\xeb\x1a='
tbag3
(g4
(I0
tS'b'
tRp826
(I1
(tg7
I00
S'\xc4\x9d4='
tbag3
(g4
(I0
tS'b'
tRp827
(I1
(tg7
I00
S'\xce\xa6m='
tbag3
(g4
(I0
tS'b'
tRp828
(I1
(tg7
I00
S'\x9d\x9a\x9e='
tbag3
(g4
(I0
tS'b'
tRp829
(I1
(tg7
I00
S'\xb5\x01\xb8='
tbag3
(g4
(I0
tS'b'
tRp830
(I1
(tg7
I00
S'\x0c}x='
tbag3
(g4
(I0
tS'b'
tRp831
(I1
(tg7
I00
S'\xe6\x98Q='
tbag3
(g4
(I0
tS'b'
tRp832
(I1
(tg7
I00
S'w\x9dN='
tbag3
(g4
(I0
tS'b'
tRp833
(I1
(tg7
I00
S'\x10y7='
tbag3
(g4
(I0
tS'b'
tRp834
(I1
(tg7
I00
S'\x80}$='
tbag3
(g4
(I0
tS'b'
tRp835
(I1
(tg7
I00
S'>JA='
tbag3
(g4
(I0
tS'b'
tRp836
(I1
(tg7
I00
S'\xe7`E='
tbag3
(g4
(I0
tS'b'
tRp837
(I1
(tg7
I00
S')\xb6U='
tbag3
(g4
(I0
tS'b'
tRp838
(I1
(tg7
I00
S'\xa17N='
tbag3
(g4
(I0
tS'b'
tRp839
(I1
(tg7
I00
S'\xe7\x0c?='
tbag3
(g4
(I0
tS'b'
tRp840
(I1
(tg7
I00
S'\xd3\x1d5='
tbag3
(g4
(I0
tS'b'
tRp841
(I1
(tg7
I00
S'\x95\x941='
tbag3
(g4
(I0
tS'b'
tRp842
(I1
(tg7
I00
S'\xf3\xbeG='
tbag3
(g4
(I0
tS'b'
tRp843
(I1
(tg7
I00
S'@mk='
tbag3
(g4
(I0
tS'b'
tRp844
(I1
(tg7
I00
S'\x0c\xe1g='
tbag3
(g4
(I0
tS'b'
tRp845
(I1
(tg7
I00
S'~\x19\x85='
tbag3
(g4
(I0
tS'b'
tRp846
(I1
(tg7
I00
S'\x14\x88]='
tbag3
(g4
(I0
tS'b'
tRp847
(I1
(tg7
I00
S'\x01\x96b='
tbag3
(g4
(I0
tS'b'
tRp848
(I1
(tg7
I00
S'\xb9E]='
tbag3
(g4
(I0
tS'b'
tRp849
(I1
(tg7
I00
S'\t\xfaR='
tbag3
(g4
(I0
tS'b'
tRp850
(I1
(tg7
I00
S'\t\x9c4='
tbag3
(g4
(I0
tS'b'
tRp851
(I1
(tg7
I00
S'2\x91/='
tbag3
(g4
(I0
tS'b'
tRp852
(I1
(tg7
I00
S'\xee7G='
tbag3
(g4
(I0
tS'b'
tRp853
(I1
(tg7
I00
S'\xcd\x15E='
tbag3
(g4
(I0
tS'b'
tRp854
(I1
(tg7
I00
S'\x85\x0cS='
tbag3
(g4
(I0
tS'b'
tRp855
(I1
(tg7
I00
S'\xa6\x1cn='
tbag3
(g4
(I0
tS'b'
tRp856
(I1
(tg7
I00
S'A\x19[='
tbag3
(g4
(I0
tS'b'
tRp857
(I1
(tg7
I00
S'\xfd\xd4H='
tbag3
(g4
(I0
tS'b'
tRp858
(I1
(tg7
I00
S'!\xae>='
tbag3
(g4
(I0
tS'b'
tRp859
(I1
(tg7
I00
S'o\x89<='
tbag3
(g4
(I0
tS'b'
tRp860
(I1
(tg7
I00
S'\xebZ7='
tbag3
(g4
(I0
tS'b'
tRp861
(I1
(tg7
I00
S'3\x8e5='
tbag3
(g4
(I0
tS'b'
tRp862
(I1
(tg7
I00
S'\xc1\xc05='
tbag3
(g4
(I0
tS'b'
tRp863
(I1
(tg7
I00
S'\xe9$*='
tbag3
(g4
(I0
tS'b'
tRp864
(I1
(tg7
I00
S'-\x8bA='
tbag3
(g4
(I0
tS'b'
tRp865
(I1
(tg7
I00
S'\x07\x8eb='
tbag3
(g4
(I0
tS'b'
tRp866
(I1
(tg7
I00
S'\xe3sh='
tbag3
(g4
(I0
tS'b'
tRp867
(I1
(tg7
I00
S'\x92\xf1\x80='
tbag3
(g4
(I0
tS'b'
tRp868
(I1
(tg7
I00
S'O\x95\x84='
tbag3
(g4
(I0
tS'b'
tRp869
(I1
(tg7
I00
S'x\x08k='
tbag3
(g4
(I0
tS'b'
tRp870
(I1
(tg7
I00
S'=6B='
tbag3
(g4
(I0
tS'b'
tRp871
(I1
(tg7
I00
S'\xcd\x7f$='
tbag3
(g4
(I0
tS'b'
tRp872
(I1
(tg7
I00
S'\xb1\xb3\x0c='
tbag3
(g4
(I0
tS'b'
tRp873
(I1
(tg7
I00
S'\xb7(\x04='
tbag3
(g4
(I0
tS'b'
tRp874
(I1
(tg7
I00
S'R}\x06='
tbag3
(g4
(I0
tS'b'
tRp875
(I1
(tg7
I00
S'J\x9e\x16='
tbag3
(g4
(I0
tS'b'
tRp876
(I1
(tg7
I00
S'2\x982='
tbag3
(g4
(I0
tS'b'
tRp877
(I1
(tg7
I00
S'\xf5\xd3j='
tbag3
(g4
(I0
tS'b'
tRp878
(I1
(tg7
I00
S'\xe6\x17\x99='
tbag3
(g4
(I0
tS'b'
tRp879
(I1
(tg7
I00
S'B]\xad='
tbag3
(g4
(I0
tS'b'
tRp880
(I1
(tg7
I00
S'\xf9\x0fj='
tbag3
(g4
(I0
tS'b'
tRp881
(I1
(tg7
I00
S'*\xe4D='
tbag3
(g4
(I0
tS'b'
tRp882
(I1
(tg7
I00
S"\x15'C="
tbag3
(g4
(I0
tS'b'
tRp883
(I1
(tg7
I00
S'\xb9--='
tbag3
(g4
(I0
tS'b'
tRp884
(I1
(tg7
I00
S'i\x9f\x1b='
tbag3
(g4
(I0
tS'b'
tRp885
(I1
(tg7
I00
S'\xd3s9='
tbag3
(g4
(I0
tS'b'
tRp886
(I1
(tg7
I00
S'\xde\xde=='
tbag3
(g4
(I0
tS'b'
tRp887
(I1
(tg7
I00
S'|\x96N='
tbag3
(g4
(I0
tS'b'
tRp888
(I1
(tg7
I00
S'\x1b\xb2H='
tbag3
(g4
(I0
tS'b'
tRp889
(I1
(tg7
I00
S'\xfb\xa79='
tbag3
(g4
(I0
tS'b'
tRp890
(I1
(tg7
I00
S's\xe5/='
tbag3
(g4
(I0
tS'b'
tRp891
(I1
(tg7
I00
S'k\x98,='
tbag3
(g4
(I0
tS'b'
tRp892
(I1
(tg7
I00
S'/JA='
tbag3
(g4
(I0
tS'b'
tRp893
(I1
(tg7
I00
S'\xc0$a='
tbag3
(g4
(I0
tS'b'
tRp894
(I1
(tg7
I00
S'g\xf4[='
tbag3
(g4
(I0
tS'b'
tRp895
(I1
(tg7
I00
S'\xec\x1fz='
tbag3
(g4
(I0
tS'b'
tRp896
(I1
(tg7
I00
S'\xd96T='
tbag3
(g4
(I0
tS'b'
tRp897
(I1
(tg7
I00
S'\xde\x8dZ='
tbag3
(g4
(I0
tS'b'
tRp898
(I1
(tg7
I00
S'+\rV='
tbag3
(g4
(I0
tS'b'
tRp899
(I1
(tg7
I00
S't\x98L='
tbag3
(g4
(I0
tS'b'
tRp900
(I1
(tg7
I00
S'9c.='
tbag3
(g4
(I0
tS'b'
tRp901
(I1
(tg7
I00
S'B\xb3)='
tbag3
(g4
(I0
tS'b'
tRp902
(I1
(tg7
I00
S'\xa5\xf5>='
tbag3
(g4
(I0
tS'b'
tRp903
(I1
(tg7
I00
S'\xb9\x8b;='
tbag3
(g4
(I0
tS'b'
tRp904
(I1
(tg7
I00
S'\xc9\x1cH='
tbag3
(g4
(I0
tS'b'
tRp905
(I1
(tg7
I00
S'^\x97a='
tbag3
(g4
(I0
tS'b'
tRp906
(I1
(tg7
I00
S'*\xe6R='
tbag3
(g4
(I0
tS'b'
tRp907
(I1
(tg7
I00
S'\xc75B='
tbag3
(g4
(I0
tS'b'
tRp908
(I1
(tg7
I00
S'[\x1a8='
tbag3
(g4
(I0
tS'b'
tRp909
(I1
(tg7
I00
S'\x93&5='
tbag3
(g4
(I0
tS'b'
tRp910
(I1
(tg7
I00
S'<\xc3/='
tbag3
(g4
(I0
tS'b'
tRp911
(I1
(tg7
I00
S"\xdc'-="
tbag3
(g4
(I0
tS'b'
tRp912
(I1
(tg7
I00
S'v\xcd-='
tbag3
(g4
(I0
tS'b'
tRp913
(I1
(tg7
I00
S'\xc5\xeb!='
tbag3
(g4
(I0
tS'b'
tRp914
(I1
(tg7
I00
S'\xe5O9='
tbag3
(g4
(I0
tS'b'
tRp915
(I1
(tg7
I00
S'\x06\xe3X='
tbag3
(g4
(I0
tS'b'
tRp916
(I1
(tg7
I00
S'\x06\xfb`='
tbag3
(g4
(I0
tS'b'
tRp917
(I1
(tg7
I00
S'u\x17y='
tbag3
(g4
(I0
tS'b'
tRp918
(I1
(tg7
I00
S'+f\x7f='
tbag3
(g4
(I0
tS'b'
tRp919
(I1
(tg7
I00
S'\xec\xb9c='
tbag3
(g4
(I0
tS'b'
tRp920
(I1
(tg7
I00
S'}\x11<='
tbag3
(g4
(I0
tS'b'
tRp921
(I1
(tg7
I00
S'|\xb1\x1e='
tbag3
(g4
(I0
tS'b'
tRp922
(I1
(tg7
I00
S'\xfc)\x07='
tbag3
(g4
(I0
tS'b'
tRp923
(I1
(tg7
I00
S'^\xfc\xfc<'
tbag3
(g4
(I0
tS'b'
tRp924
(I1
(tg7
I00
S'\xaa5\x01='
tbag3
(g4
(I0
tS'b'
tRp925
(I1
(tg7
I00
S'iM\x13='
tbag3
(g4
(I0
tS'b'
tRp926
(I1
(tg7
I00
S'On0='
tbag3
(g4
(I0
tS'b'
tRp927
(I1
(tg7
I00
S'\x15\xa2f='
tbag3
(g4
(I0
tS'b'
tRp928
(I1
(tg7
I00
S'2 \x93='
tbag3
(g4
(I0
tS'b'
tRp929
(I1
(tg7
I00
S'g\x02\xa3='
tbag3
(g4
(I0
tS'b'
tRp930
(I1
(tg7
I00
S'\xab\r^='
tbag3
(g4
(I0
tS'b'
tRp931
(I1
(tg7
I00
S'\x12\x9a;='
tbag3
(g4
(I0
tS'b'
tRp932
(I1
(tg7
I00
S'5\xdd:='
tbag3
(g4
(I0
tS'b'
tRp933
(I1
(tg7
I00
S'pC%='
tbag3
(g4
(I0
tS'b'
tRp934
(I1
(tg7
I00
S'\xd2\xf0\x14='
tbag3
(g4
(I0
tS'b'
tRp935
(I1
(tg7
I00
S'p\xf62='
tbag3
(g4
(I0
tS'b'
tRp936
(I1
(tg7
I00
S'\xb4t7='
tbag3
(g4
(I0
tS'b'
tRp937
(I1
(tg7
I00
S'\x90\xd0G='
tbag3
(g4
(I0
tS'b'
tRp938
(I1
(tg7
I00
S'\xe9\x1cC='
tbag3
(g4
(I0
tS'b'
tRp939
(I1
(tg7
I00
S'e\xc53='
tbag3
(g4
(I0
tS'b'
tRp940
(I1
(tg7
I00
S')q)='
tbag3
(g4
(I0
tS'b'
tRp941
(I1
(tg7
I00
S'S>&='
tbag3
(g4
(I0
tS'b'
tRp942
(I1
(tg7
I00
S'\xfe\xfe9='
tbag3
(g4
(I0
tS'b'
tRp943
(I1
(tg7
I00
S'K\xfdW='
tbag3
(g4
(I0
tS'b'
tRp944
(I1
(tg7
I00
S'\x9b\xe6Q='
tbag3
(g4
(I0
tS'b'
tRp945
(I1
(tg7
I00
S'\xd8?o='
tbag3
(g4
(I0
tS'b'
tRp946
(I1
(tg7
I00
S'[\x01M='
tbag3
(g4
(I0
tS'b'
tRp947
(I1
(tg7
I00
S'2PR='
tbag3
(g4
(I0
tS'b'
tRp948
(I1
(tg7
I00
S'\x1e\x87P='
tbag3
(g4
(I0
tS'b'
tRp949
(I1
(tg7
I00
S'4aH='
tbag3
(g4
(I0
tS'b'
tRp950
(I1
(tg7
I00
S'/\xbd(='
tbag3
(g4
(I0
tS'b'
tRp951
(I1
(tg7
I00
S'b\xa7$='
tbag3
(g4
(I0
tS'b'
tRp952
(I1
(tg7
I00
S'\xabL7='
tbag3
(g4
(I0
tS'b'
tRp953
(I1
(tg7
I00
S'\xeeL3='
tbag3
(g4
(I0
tS'b'
tRp954
(I1
(tg7
I00
S'\xcb\xeb=='
tbag3
(g4
(I0
tS'b'
tRp955
(I1
(tg7
I00
S'\x81[T='
tbag3
(g4
(I0
tS'b'
tRp956
(I1
(tg7
I00
S'\x1b\xfaH='
tbag3
(g4
(I0
tS'b'
tRp957
(I1
(tg7
I00
S'\xd3\xba:='
tbag3
(g4
(I0
tS'b'
tRp958
(I1
(tg7
I00
S'\x97[2='
tbag3
(g4
(I0
tS'b'
tRp959
(I1
(tg7
I00
S'3\xdd/='
tbag3
(g4
(I0
tS'b'
tRp960
(I1
(tg7
I00
S'\xa2\x00+='
tbag3
(g4
(I0
tS'b'
tRp961
(I1
(tg7
I00
S'S\xf8(='
tbag3
(g4
(I0
tS'b'
tRp962
(I1
(tg7
I00
S'\xde\x1e*='
tbag3
(g4
(I0
tS'b'
tRp963
(I1
(tg7
I00
S'\xef\xb3\x1d='
tbag3
(g4
(I0
tS'b'
tRp964
(I1
(tg7
I00
S'p\xd83='
tbag3
(g4
(I0
tS'b'
tRp965
(I1
(tg7
I00
S'\x84\xd1O='
tbag3
(g4
(I0
tS'b'
tRp966
(I1
(tg7
I00
S'\xa1\x1aW='
tbag3
(g4
(I0
tS'b'
tRp967
(I1
(tg7
I00
S'\xb8\x93m='
tbag3
(g4
(I0
tS'b'
tRp968
(I1
(tg7
I00
S'\xc64t='
tbag3
(g4
(I0
tS'b'
tRp969
(I1
(tg7
I00
S'9\xbf[='
tbag3
(g4
(I0
tS'b'
tRp970
(I1
(tg7
I00
S'\xb3\n7='
tbag3
(g4
(I0
tS'b'
tRp971
(I1
(tg7
I00
S'\xb4[\x1a='
tbag3
(g4
(I0
tS'b'
tRp972
(I1
(tg7
I00
S'G\x05\x03='
tbag3
(g4
(I0
tS'b'
tRp973
(I1
(tg7
I00
S'[{\xf5<'
tbag3
(g4
(I0
tS'b'
tRp974
(I1
(tg7
I00
S')\xe7\xfc<'
tbag3
(g4
(I0
tS'b'
tRp975
(I1
(tg7
I00
S'\xef\xa3\x12='
tbag3
(g4
(I0
tS'b'
tRp976
(I1
(tg7
I00
S'\xab\xf2/='
tbag3
(g4
(I0
tS'b'
tRp977
(I1
(tg7
I00
S'\xfe\xbec='
tbag3
(g4
(I0
tS'b'
tRp978
(I1
(tg7
I00
S'^\xec\x8c='
tbag3
(g4
(I0
tS'b'
tRp979
(I1
(tg7
I00
S'\x90\x82\x98='
tbag3
(g4
(I0
tS'b'
tRp980
(I1
(tg7
I00
S'xLQ='
tbag3
(g4
(I0
tS'b'
tRp981
(I1
(tg7
I00
S'\xf5\xea1='
tbag3
(g4
(I0
tS'b'
tRp982
(I1
(tg7
I00
S'\xd5\x132='
tbag3
(g4
(I0
tS'b'
tRp983
(I1
(tg7
I00
S'\xcb\x83\x1d='
tbag3
(g4
(I0
tS'b'
tRp984
(I1
(tg7
I00
S'\xbd\xc4\x0e='
tbag3
(g4
(I0
tS'b'
tRp985
(I1
(tg7
I00
S'P<-='
tbag3
(g4
(I0
tS'b'
tRp986
(I1
(tg7
I00
S'MG3='
tbag3
(g4
(I0
tS'b'
tRp987
(I1
(tg7
I00
S'\xeb\x02D='
tbag3
(g4
(I0
tS'b'
tRp988
(I1
(tg7
I00
S'\xbeH@='
tbag3
(g4
(I0
tS'b'
tRp989
(I1
(tg7
I00
S'\x9e\xe9/='
tbag3
(g4
(I0
tS'b'
tRp990
(I1
(tg7
I00
S'\xc4\xf1$='
tbag3
(g4
(I0
tS'b'
tRp991
(I1
(tg7
I00
S'[\xba!='
tbag3
(g4
(I0
tS'b'
tRp992
(I1
(tg7
I00
S'\x8d\x004='
tbag3
(g4
(I0
tS'b'
tRp993
(I1
(tg7
I00
S't\xefO='
tbag3
(g4
(I0
tS'b'
tRp994
(I1
(tg7
I00
S'\x05cH='
tbag3
(g4
(I0
tS'b'
tRp995
(I1
(tg7
I00
S'\xf3rc='
tbag3
(g4
(I0
tS'b'
tRp996
(I1
(tg7
I00
S'\x1c\xd7D='
tbag3
(g4
(I0
tS'b'
tRp997
(I1
(tg7
I00
S'\x89\xbaJ='
tbag3
(g4
(I0
tS'b'
tRp998
(I1
(tg7
I00
S'\xa9%I='
tbag3
(g4
(I0
tS'b'
tRp999
(I1
(tg7
I00
S'\x9d\x9bB='
tbag3
(g4
(I0
tS'b'
tRp1000
(I1
(tg7
I00
S'\xb6\x80$='
tbag3
(g4
(I0
tS'b'
tRp1001
(I1
(tg7
I00
S'r\x91 ='
tbag3
(g4
(I0
tS'b'
tRp1002
(I1
(tg7
I00
S'u\xf61='
tbag3
(g4
(I0
tS'b'
tRp1003
(I1
(tg7
I00
S'$e-='
tbag3
(g4
(I0
tS'b'
tRp1004
(I1
(tg7
I00
S'^R7='
tbag3
(g4
(I0
tS'b'
tRp1005
(I1
(tg7
I00
S'\xac\xe3L='
tbag3
(g4
(I0
tS'b'
tRp1006
(I1
(tg7
I00
S'wPB='
tbag3
(g4
(I0
tS'b'
tRp1007
(I1
(tg7
I00
S'\xae\xe44='
tbag3
(g4
(I0
tS'b'
tRp1008
(I1
(tg7
I00
S'&\xb7,='
tbag3
(g4
(I0
tS'b'
tRp1009
(I1
(tg7
I00
S'\x9c\xe8(='
tbag3
(g4
(I0
tS'b'
tRp1010
(I1
(tg7
I00
S'\xf0\xaf$='
tbag3
(g4
(I0
tS'b'
tRp1011
(I1
(tg7
I00
S'\x10\xf7"='
tbag3
(g4
(I0
tS'b'
tRp1012
(I1
(tg7
I00
S'\x87O$='
tbag3
(g4
(I0
tS'b'
tRp1013
(I1
(tg7
I00
S'=\xd7\x18='
tbag3
(g4
(I0
tS'b'
tRp1014
(I1
(tg7
I00
S'V\xd6.='
tbag3
(g4
(I0
tS'b'
tRp1015
(I1
(tg7
I00
S'Y2I='
tbag3
(g4
(I0
tS'b'
tRp1016
(I1
(tg7
I00
S'\xdd Q='
tbag3
(g4
(I0
tS'b'
tRp1017
(I1
(tg7
I00
S'r\x97f='
tbag3
(g4
(I0
tS'b'
tRp1018
(I1
(tg7
I00
S'\x05\x07l='
tbag3
(g4
(I0
tS'b'
tRp1019
(I1
(tg7
I00
S'A-T='
tbag3
(g4
(I0
tS'b'
tRp1020
(I1
(tg7
I00
S'\x99Y1='
tbag3
(g4
(I0
tS'b'
tRp1021
(I1
(tg7
I00
S'\x80<\x15='
tbag3
(g4
(I0
tS'b'
tRp1022
(I1
(tg7
I00
S'B<\xfd<'
tbag3
(g4
(I0
tS'b'
tRp1023
(I1
(tg7
I00
S'^\x11\xed<'
tbag3
(g4
(I0
tS'b'
tRp1024
(I1
(tg7
I00
S'\xcb\x06\xf6<'
tbag3
(g4
(I0
tS'b'
tRp1025
(I1
(tg7
I00
S'\xe6s\x10='
tbag3
(g4
(I0
tS'b'
tRp1026
(I1
(tg7
I00
S'\x16\xb8+='
tbag3
(g4
(I0
tS'b'
tRp1027
(I1
(tg7
I00
S'\xde\xb4[='
tbag3
(g4
(I0
tS'b'
tRp1028
(I1
(tg7
I00
S'\xc2\xe1\x86='
tbag3
(g4
(I0
tS'b'
tRp1029
(I1
(tg7
I00
S'\x84\xcf\x91='
tbag3
(g4
(I0
tS'b'
tRp1030
(I1
(tg7
I00
S'\xad\x8aJ='
tbag3
(g4
(I0
tS'b'
tRp1031
(I1
(tg7
I00
S'\x85o-='
tbag3
(g4
(I0
tS'b'
tRp1032
(I1
(tg7
I00
S'\x9e\x15.='
tbag3
(g4
(I0
tS'b'
tRp1033
(I1
(tg7
I00
S'\xbd\x84\x19='
tbag3
(g4
(I0
tS'b'
tRp1034
(I1
(tg7
I00
S'\xab\x94\n='
tbag3
(g4
(I0
tS'b'
tRp1035
(I1
(tg7
I00
S"\xd4\xcf'="
tbag3
(g4
(I0
tS'b'
tRp1036
(I1
(tg7
I00
S'N\xf0,='
tbag3
(g4
(I0
tS'b'
tRp1037
(I1
(tg7
I00
S'\xab\x1d=='
tbag3
(g4
(I0
tS'b'
tRp1038
(I1
(tg7
I00
S'\xeaT:='
tbag3
(g4
(I0
tS'b'
tRp1039
(I1
(tg7
I00
S'\xab\xad*='
tbag3
(g4
(I0
tS'b'
tRp1040
(I1
(tg7
I00
S']{ ='
tbag3
(g4
(I0
tS'b'
tRp1041
(I1
(tg7
I00
S'~\xab\x1d='
tbag3
(g4
(I0
tS'b'
tRp1042
(I1
(tg7
I00
S'\x16J.='
tbag3
(g4
(I0
tS'b'
tRp1043
(I1
(tg7
I00
S'\xcf\xfdH='
tbag3
(g4
(I0
tS'b'
tRp1044
(I1
(tg7
I00
S'\xbd\xa6A='
tbag3
(g4
(I0
tS'b'
tRp1045
(I1
(tg7
I00
S'&\xb6[='
tbag3
(g4
(I0
tS'b'
tRp1046
(I1
(tg7
I00
S'I\xe3>='
tbag3
(g4
(I0
tS'b'
tRp1047
(I1
(tg7
I00
S'U5D='
tbag3
(g4
(I0
tS'b'
tRp1048
(I1
(tg7
I00
S'm\x90B='
tbag3
(g4
(I0
tS'b'
tRp1049
(I1
(tg7
I00
S'\x80\xee<='
tbag3
(g4
(I0
tS'b'
tRp1050
(I1
(tg7
I00
S'_=\x1f='
tbag3
(g4
(I0
tS'b'
tRp1051
(I1
(tg7
I00
S'A}\x1b='
tbag3
(g4
(I0
tS'b'
tRp1052
(I1
(tg7
I00
S'\xb8E,='
tbag3
(g4
(I0
tS'b'
tRp1053
(I1
(tg7
I00
S"\x82\xd3'="
tbag3
(g4
(I0
tS'b'
tRp1054
(I1
(tg7
I00
S'\x82\xcd1='
tbag3
(g4
(I0
tS'b'
tRp1055
(I1
(tg7
I00
S'T-F='
tbag3
(g4
(I0
tS'b'
tRp1056
(I1
(tg7
I00
S'\x1e\xff<='
tbag3
(g4
(I0
tS'b'
tRp1057
(I1
(tg7
I00
S'\xd9\x050='
tbag3
(g4
(I0
tS'b'
tRp1058
(I1
(tg7
I00
S"\xeb\xff'="
tbag3
(g4
(I0
tS'b'
tRp1059
(I1
(tg7
I00
S'\xd3S#='
tbag3
(g4
(I0
tS'b'
tRp1060
(I1
(tg7
I00
S'\x08\x84\x1f='
tbag3
(g4
(I0
tS'b'
tRp1061
(I1
(tg7
I00
S'\\\xb8\x1d='
tbag3
(g4
(I0
tS'b'
tRp1062
(I1
(tg7
I00
S'\x8d\x9e\x1f='
tbag3
(g4
(I0
tS'b'
tRp1063
(I1
(tg7
I00
S'\x7f\xa2\x14='
tbag3
(g4
(I0
tS'b'
tRp1064
(I1
(tg7
I00
S'\xc2~*='
tbag3
(g4
(I0
tS'b'
tRp1065
(I1
(tg7
I00
S'\xc5\xb9C='
tbag3
(g4
(I0
tS'b'
tRp1066
(I1
(tg7
I00
S'\xad\xdbJ='
tbag3
(g4
(I0
tS'b'
tRp1067
(I1
(tg7
I00
S'\xf7\x94^='
tbag3
(g4
(I0
tS'b'
tRp1068
(I1
(tg7
I00
S'\xa7Zc='
tbag3
(g4
(I0
tS'b'
tRp1069
(I1
(tg7
I00
S'\xec\x12M='
tbag3
(g4
(I0
tS'b'
tRp1070
(I1
(tg7
I00
S'YA,='
tbag3
(g4
(I0
tS'b'
tRp1071
(I1
(tg7
I00
S'\r\x05\x11='
tbag3
(g4
(I0
tS'b'
tRp1072
(I1
(tg7
I00
S'\x80\xac\xf5<'
tbag3
(g4
(I0
tS'b'
tRp1073
(I1
(tg7
I00
S'\xb9D\xe6<'
tbag3
(g4
(I0
tS'b'
tRp1074
(I1
(tg7
I00
S'\xb0\xeb\xf0<'
tbag3
(g4
(I0
tS'b'
tRp1075
(I1
(tg7
I00
S'/\r\x0f='
tbag3
(g4
(I0
tS'b'
tRp1076
(I1
(tg7
I00
S'\xf0\xa9)='
tbag3
(g4
(I0
tS'b'
tRp1077
(I1
(tg7
I00
S'\xddqW='
tbag3
(g4
(I0
tS'b'
tRp1078
(I1
(tg7
I00
S'\xb8^\x81='
tbag3
(g4
(I0
tS'b'
tRp1079
(I1
(tg7
I00
S'\xd0\xed\x89='
tbag3
(g4
(I0
tS'b'
tRp1080
(I1
(tg7
I00
S'g(B='
tbag3
(g4
(I0
tS'b'
tRp1081
(I1
(tg7
I00
S"\x98\xfe'="
tbag3
(g4
(I0
tS'b'
tRp1082
(I1
(tg7
I00
S'\xf9m)='
tbag3
(g4
(I0
tS'b'
tRp1083
(I1
(tg7
I00
S'\xa7\xa8\x15='
tbag3
(g4
(I0
tS'b'
tRp1084
(I1
(tg7
I00
S'\x01=\x07='
tbag3
(g4
(I0
tS'b'
tRp1085
(I1
(tg7
I00
S'7\x96$='
tbag3
(g4
(I0
tS'b'
tRp1086
(I1
(tg7
I00
S'\xd7~)='
tbag3
(g4
(I0
tS'b'
tRp1087
(I1
(tg7
I00
S'\x84\xdf8='
tbag3
(g4
(I0
tS'b'
tRp1088
(I1
(tg7
I00
S'\x90[6='
tbag3
(g4
(I0
tS'b'
tRp1089
(I1
(tg7
I00
S'\xee\x9f%='
tbag3
(g4
(I0
tS'b'
tRp1090
(I1
(tg7
I00
S'\xc0{\x1b='
tbag3
(g4
(I0
tS'b'
tRp1091
(I1
(tg7
I00
S'bT\x18='
tbag3
(g4
(I0
tS'b'
tRp1092
(I1
(tg7
I00
S"\x85B'="
tbag3
(g4
(I0
tS'b'
tRp1093
(I1
(tg7
I00
S'i\xf9@='
tbag3
(g4
(I0
tS'b'
tRp1094
(I1
(tg7
I00
S'\xf5\x05:='
tbag3
(g4
(I0
tS'b'
tRp1095
(I1
(tg7
I00
S'\xe1\xc4S='
tbag3
(g4
(I0
tS'b'
tRp1096
(I1
(tg7
I00
S'\xb5\xe89='
tbag3
(g4
(I0
tS'b'
tRp1097
(I1
(tg7
I00
S'\xea)?='
tbag3
(g4
(I0
tS'b'
tRp1098
(I1
(tg7
I00
S'\x92\xcd>='
tbag3
(g4
(I0
tS'b'
tRp1099
(I1
(tg7
I00
S'r\x0f:='
tbag3
(g4
(I0
tS'b'
tRp1100
(I1
(tg7
I00
S'\xe7.\x1c='
tbag3
(g4
(I0
tS'b'
tRp1101
(I1
(tg7
I00
S'\xf2\x14\x19='
tbag3
(g4
(I0
tS'b'
tRp1102
(I1
(tg7
I00
S'\x9c+(='
tbag3
(g4
(I0
tS'b'
tRp1103
(I1
(tg7
I00
S'\xa9\xcc"='
tbag3
(g4
(I0
tS'b'
tRp1104
(I1
(tg7
I00
S'\xcbL+='
tbag3
(g4
(I0
tS'b'
tRp1105
(I1
(tg7
I00
S'\xc0\\=='
tbag3
(g4
(I0
tS'b'
tRp1106
(I1
(tg7
I00
S'5\xbd5='
tbag3
(g4
(I0
tS'b'
tRp1107
(I1
(tg7
I00
S'*\x84)='
tbag3
(g4
(I0
tS'b'
tRp1108
(I1
(tg7
I00
S'\xddp#='
tbag3
(g4
(I0
tS'b'
tRp1109
(I1
(tg7
I00
S'O\x17\x1f='
tbag3
(g4
(I0
tS'b'
tRp1110
(I1
(tg7
I00
S'\x80\x1e\x1c='
tbag3
(g4
(I0
tS'b'
tRp1111
(I1
(tg7
I00
S'\x00\x14\x1a='
tbag3
(g4
(I0
tS'b'
tRp1112
(I1
(tg7
I00
S'\xaaR\x1c='
tbag3
(g4
(I0
tS'b'
tRp1113
(I1
(tg7
I00
S'\x1a\xc7\x11='
tbag3
(g4
(I0
tS'b'
tRp1114
(I1
(tg7
I00
S'\xde\xa3&='
tbag3
(g4
(I0
tS'b'
tRp1115
(I1
(tg7
I00
S'\xdb\xd0>='
tbag3
(g4
(I0
tS'b'
tRp1116
(I1
(tg7
I00
S'\xa2\xcfD='
tbag3
(g4
(I0
tS'b'
tRp1117
(I1
(tg7
I00
S'BSU='
tbag3
(g4
(I0
tS'b'
tRp1118
(I1
(tg7
I00
S'\xd4\x89Y='
tbag3
(g4
(I0
tS'b'
tRp1119
(I1
(tg7
I00
S'\xcbKE='
tbag3
(g4
(I0
tS'b'
tRp1120
(I1
(tg7
I00
S'\x8a\x88(='
tbag3
(g4
(I0
tS'b'
tRp1121
(I1
(tg7
I00
S'\xdd\x1a\x0f='
tbag3
(g4
(I0
tS'b'
tRp1122
(I1
(tg7
I00
S'b\x82\xf1<'
tbag3
(g4
(I0
tS'b'
tRp1123
(I1
(tg7
I00
S'\xe5\xcf\xe1<'
tbag3
(g4
(I0
tS'b'
tRp1124
(I1
(tg7
I00
S'\xa5\x00\xee<'
tbag3
(g4
(I0
tS'b'
tRp1125
(I1
(tg7
I00
S':\xd1\x0e='
tbag3
(g4
(I0
tS'b'
tRp1126
(I1
(tg7
I00
S'\xb9 )='
tbag3
(g4
(I0
tS'b'
tRp1127
(I1
(tg7
I00
S'\x10\xacT='
tbag3
(g4
(I0
tS'b'
tRp1128
(I1
(tg7
I00
S'~\xdcy='
tbag3
(g4
(I0
tS'b'
tRp1129
(I1
(tg7
I00
S'\n\xab\x82='
tbag3
(g4
(I0
tS'b'
tRp1130
(I1
(tg7
I00
S'\xc7\x839='
tbag3
(g4
(I0
tS'b'
tRp1131
(I1
(tg7
I00
S'\xbd\xd5\x1f='
tbag3
(g4
(I0
tS'b'
tRp1132
(I1
(tg7
I00
S'\x14\xa7"='
tbag3
(g4
(I0
tS'b'
tRp1133
(I1
(tg7
I00
S'n\x95\x10='
tbag3
(g4
(I0
tS'b'
tRp1134
(I1
(tg7
I00
S'j\xc9\x03='
tbag3
(g4
(I0
tS'b'
tRp1135
(I1
(tg7
I00
S'\x9e\xa0!='
tbag3
(g4
(I0
tS'b'
tRp1136
(I1
(tg7
I00
S"\xfc''="
tbag3
(g4
(I0
tS'b'
tRp1137
(I1
(tg7
I00
S'J]6='
tbag3
(g4
(I0
tS'b'
tRp1138
(I1
(tg7
I00
S'\xbdK3='
tbag3
(g4
(I0
tS'b'
tRp1139
(I1
(tg7
I00
S'\x0f\xc5!='
tbag3
(g4
(I0
tS'b'
tRp1140
(I1
(tg7
I00
S'\xd9\x9b\x17='
tbag3
(g4
(I0
tS'b'
tRp1141
(I1
(tg7
I00
S'\x7f/\x14='
tbag3
(g4
(I0
tS'b'
tRp1142
(I1
(tg7
I00
S'\xfe\x18"='
tbag3
(g4
(I0
tS'b'
tRp1143
(I1
(tg7
I00
S'|\x1a:='
tbag3
(g4
(I0
tS'b'
tRp1144
(I1
(tg7
I00
S'\x99\x1a3='
tbag3
(g4
(I0
tS'b'
tRp1145
(I1
(tg7
I00
S'{\xf3K='
tbag3
(g4
(I0
tS'b'
tRp1146
(I1
(tg7
I00
S'\\\xb74='
tbag3
(g4
(I0
tS'b'
tRp1147
(I1
(tg7
I00
S'\xc1U:='
tbag3
(g4
(I0
tS'b'
tRp1148
(I1
(tg7
I00
S'm5:='
tbag3
(g4
(I0
tS'b'
tRp1149
(I1
(tg7
I00
S'^v6='
tbag3
(g4
(I0
tS'b'
tRp1150
(I1
(tg7
I00
S'\xb2w\x18='
tbag3
(g4
(I0
tS'b'
tRp1151
(I1
(tg7
I00
S'Z\r\x15='
tbag3
(g4
(I0
tS'b'
tRp1152
(I1
(tg7
I00
S'+\x8f#='
tbag3
(g4
(I0
tS'b'
tRp1153
(I1
(tg7
I00
S'\xa4t\x1e='
tbag3
(g4
(I0
tS'b'
tRp1154
(I1
(tg7
I00
S'\x13\x9c&='
tbag3
(g4
(I0
tS'b'
tRp1155
(I1
(tg7
I00
S'N\xcd7='
tbag3
(g4
(I0
tS'b'
tRp1156
(I1
(tg7
I00
S'P\xd10='
tbag3
(g4
(I0
tS'b'
tRp1157
(I1
(tg7
I00
S'\xf8\xec$='
tbag3
(g4
(I0
tS'b'
tRp1158
(I1
(tg7
I00
S'\xf2\xf8\x1e='
tbag3
(g4
(I0
tS'b'
tRp1159
(I1
(tg7
I00
S'i\x98\x1a='
tbag3
(g4
(I0
tS'b'
tRp1160
(I1
(tg7
I00
S'}\xe7\x17='
tbag3
(g4
(I0
tS'b'
tRp1161
(I1
(tg7
I00
S'y\xac\x15='
tbag3
(g4
(I0
tS'b'
tRp1162
(I1
(tg7
I00
S'\xd6`\x18='
tbag3
(g4
(I0
tS'b'
tRp1163
(I1
(tg7
I00
S'\x8d\xad\x0e='
tbag3
(g4
(I0
tS'b'
tRp1164
(I1
(tg7
I00
S'\xb2:#='
tbag3
(g4
(I0
tS'b'
tRp1165
(I1
(tg7
I00
S'y\xb6:='
tbag3
(g4
(I0
tS'b'
tRp1166
(I1
(tg7
I00
S'5\xc4@='
tbag3
(g4
(I0
tS'b'
tRp1167
(I1
(tg7
I00
S'8HO='
tbag3
(g4
(I0
tS'b'
tRp1168
(I1
(tg7
I00
S'\xbe\xaaQ='
tbag3
(g4
(I0
tS'b'
tRp1169
(I1
(tg7
I00
S'\x05D>='
tbag3
(g4
(I0
tS'b'
tRp1170
(I1
(tg7
I00
S'\x87\xdf#='
tbag3
(g4
(I0
tS'b'
tRp1171
(I1
(tg7
I00
S'ij\x0b='
tbag3
(g4
(I0
tS'b'
tRp1172
(I1
(tg7
I00
S'7=\xeb<'
tbag3
(g4
(I0
tS'b'
tRp1173
(I1
(tg7
I00
S'\x00y\xdc<'
tbag3
(g4
(I0
tS'b'
tRp1174
(I1
(tg7
I00
S' \xe7\xe9<'
tbag3
(g4
(I0
tS'b'
tRp1175
(I1
(tg7
I00
S'\xfc\x8d\r='
tbag3
(g4
(I0
tS'b'
tRp1176
(I1
(tg7
I00
S"&\xba'="
tbag3
(g4
(I0
tS'b'
tRp1177
(I1
(tg7
I00
S'/"Q='
tbag3
(g4
(I0
tS'b'
tRp1178
(I1
(tg7
I00
S'\x1e\xf3q='
tbag3
(g4
(I0
tS'b'
tRp1179
(I1
(tg7
I00
S'\xea\xffy='
tbag3
(g4
(I0
tS'b'
tRp1180
(I1
(tg7
I00
S'\x02D2='
tbag3
(g4
(I0
tS'b'
tRp1181
(I1
(tg7
I00
S'\x89e\x1a='
tbag3
(g4
(I0
tS'b'
tRp1182
(I1
(tg7
I00
S'1\x0c\x1e='
tbag3
(g4
(I0
tS'b'
tRp1183
(I1
(tg7
I00
S"'\xfa\x0c="
tbag3
(g4
(I0
tS'b'
tRp1184
(I1
(tg7
I00
S'\xbb\xd3\x00='
tbag3
(g4
(I0
tS'b'
tRp1185
(I1
(tg7
I00
S'&\xf0\x1e='
tbag3
(g4
(I0
tS'b'
tRp1186
(I1
(tg7
I00
S'$\xd1$='
tbag3
(g4
(I0
tS'b'
tRp1187
(I1
(tg7
I00
S'\x90\x983='
tbag3
(g4
(I0
tS'b'
tRp1188
(I1
(tg7
I00
S'\xbc\xea0='
tbag3
(g4
(I0
tS'b'
tRp1189
(I1
(tg7
I00
S'\xcdH\x1e='
tbag3
(g4
(I0
tS'b'
tRp1190
(I1
(tg7
I00
S'm\x8c\x13='
tbag3
(g4
(I0
tS'b'
tRp1191
(I1
(tg7
I00
S"'.\x0f="
tbag3
(g4
(I0
tS'b'
tRp1192
(I1
(tg7
I00
S'F\x07\x1c='
tbag3
(g4
(I0
tS'b'
tRp1193
(I1
(tg7
I00
S'O\x073='
tbag3
(g4
(I0
tS'b'
tRp1194
(I1
(tg7
I00
S'b\x01-='
tbag3
(g4
(I0
tS'b'
tRp1195
(I1
(tg7
I00
S'\x9d\xbcE='
tbag3
(g4
(I0
tS'b'
tRp1196
(I1
(tg7
I00
S'\xcf\x021='
tbag3
(g4
(I0
tS'b'
tRp1197
(I1
(tg7
I00
S'\x8dv7='
tbag3
(g4
(I0
tS'b'
tRp1198
(I1
(tg7
I00
S'\x15*8='
tbag3
(g4
(I0
tS'b'
tRp1199
(I1
(tg7
I00
S'a44='
tbag3
(g4
(I0
tS'b'
tRp1200
(I1
(tg7
I00
S'\xe4F\x15='
tbag3
(g4
(I0
tS'b'
tRp1201
(I1
(tg7
I00
S'0.\x11='
tbag3
(g4
(I0
tS'b'
tRp1202
(I1
(tg7
I00
S'\x8a\x1f\x1f='
tbag3
(g4
(I0
tS'b'
tRp1203
(I1
(tg7
I00
S'\xb6-\x1a='
tbag3
(g4
(I0
tS'b'
tRp1204
(I1
(tg7
I00
S'I\xa0!='
tbag3
(g4
(I0
tS'b'
tRp1205
(I1
(tg7
I00
S'sq1='
tbag3
(g4
(I0
tS'b'
tRp1206
(I1
(tg7
I00
S'\xd9\x8b+='
tbag3
(g4
(I0
tS'b'
tRp1207
(I1
(tg7
I00
S'i# ='
tbag3
(g4
(I0
tS'b'
tRp1208
(I1
(tg7
I00
S'\xfa\xed\x1a='
tbag3
(g4
(I0
tS'b'
tRp1209
(I1
(tg7
I00
S'\xc6\x1b\x17='
tbag3
(g4
(I0
tS'b'
tRp1210
(I1
(tg7
I00
S'\x7f\xb8\x14='
tbag3
(g4
(I0
tS'b'
tRp1211
(I1
(tg7
I00
S'\xeb\xfb\x12='
tbag3
(g4
(I0
tS'b'
tRp1212
(I1
(tg7
I00
S'\xaa\n\x16='
tbag3
(g4
(I0
tS'b'
tRp1213
(I1
(tg7
I00
S'\xb4R\x0c='
tbag3
(g4
(I0
tS'b'
tRp1214
(I1
(tg7
I00
S'V\x18 ='
tbag3
(g4
(I0
tS'b'
tRp1215
(I1
(tg7
I00
S'\xc7S6='
tbag3
(g4
(I0
tS'b'
tRp1216
(I1
(tg7
I00
S'P\x8e;='
tbag3
(g4
(I0
tS'b'
tRp1217
(I1
(tg7
I00
S'\xd85H='
tbag3
(g4
(I0
tS'b'
tRp1218
(I1
(tg7
I00
S'\xc5^J='
tbag3
(g4
(I0
tS'b'
tRp1219
(I1
(tg7
I00
S'\xe1\x019='
tbag3
(g4
(I0
tS'b'
tRp1220
(I1
(tg7
I00
S'\xd38!='
tbag3
(g4
(I0
tS'b'
tRp1221
(I1
(tg7
I00
S'\x8fU\t='
tbag3
(g4
(I0
tS'b'
tRp1222
(I1
(tg7
I00
S'\xecr\xe7<'
tbag3
(g4
(I0
tS'b'
tRp1223
(I1
(tg7
I00
S'Y\x9d\xd8<'
tbag3
(g4
(I0
tS'b'
tRp1224
(I1
(tg7
I00
S'\xbd\xc0\xe6<'
tbag3
(g4
(I0
tS'b'
tRp1225
(I1
(tg7
I00
S'\x8c.\x0c='
tbag3
(g4
(I0
tS'b'
tRp1226
(I1
(tg7
I00
S'-\xc9&='
tbag3
(g4
(I0
tS'b'
tRp1227
(I1
(tg7
I00
S'^hM='
tbag3
(g4
(I0
tS'b'
tRp1228
(I1
(tg7
I00
S'\xc1\xd5j='
tbag3
(g4
(I0
tS'b'
tRp1229
(I1
(tg7
I00
S'R\xe6o='
tbag3
(g4
(I0
tS'b'
tRp1230
(I1
(tg7
I00
S'g\xb2+='
tbag3
(g4
(I0
tS'b'
tRp1231
(I1
(tg7
I00
S'\xa3j\x14='
tbag3
(g4
(I0
tS'b'
tRp1232
(I1
(tg7
I00
S'^\xd4\x18='
tbag3
(g4
(I0
tS'b'
tRp1233
(I1
(tg7
I00
S'\x86(\t='
tbag3
(g4
(I0
tS'b'
tRp1234
(I1
(tg7
I00
S'|[\xfc<'
tbag3
(g4
(I0
tS'b'
tRp1235
(I1
(tg7
I00
S't\x9b\x1c='
tbag3
(g4
(I0
tS'b'
tRp1236
(I1
(tg7
I00
S'\x10s#='
tbag3
(g4
(I0
tS'b'
tRp1237
(I1
(tg7
I00
S'!\x891='
tbag3
(g4
(I0
tS'b'
tRp1238
(I1
(tg7
I00
S'\xea\xdc-='
tbag3
(g4
(I0
tS'b'
tRp1239
(I1
(tg7
I00
S'\xd0\x9a\x19='
tbag3
(g4
(I0
tS'b'
tRp1240
(I1
(tg7
I00
S'f\x1f\x0f='
tbag3
(g4
(I0
tS'b'
tRp1241
(I1
(tg7
I00
S'd\x8d\n='
tbag3
(g4
(I0
tS'b'
tRp1242
(I1
(tg7
I00
S'\xb5\xf5\x16='
tbag3
(g4
(I0
tS'b'
tRp1243
(I1
(tg7
I00
S'm\xb1-='
tbag3
(g4
(I0
tS'b'
tRp1244
(I1
(tg7
I00
S'E\x02(='
tbag3
(g4
(I0
tS'b'
tRp1245
(I1
(tg7
I00
S'\x8e0A='
tbag3
(g4
(I0
tS'b'
tRp1246
(I1
(tg7
I00
S'\xf0\xfd-='
tbag3
(g4
(I0
tS'b'
tRp1247
(I1
(tg7
I00
S'\x18|4='
tbag3
(g4
(I0
tS'b'
tRp1248
(I1
(tg7
I00
S' i5='
tbag3
(g4
(I0
tS'b'
tRp1249
(I1
(tg7
I00
S"\xe2'1="
tbag3
(g4
(I0
tS'b'
tRp1250
(I1
(tg7
I00
S'\x8d\xcb\x11='
tbag3
(g4
(I0
tS'b'
tRp1251
(I1
(tg7
I00
S'\xf2\xf0\x0c='
tbag3
(g4
(I0
tS'b'
tRp1252
(I1
(tg7
I00
S'\xa1w\x1a='
tbag3
(g4
(I0
tS'b'
tRp1253
(I1
(tg7
I00
S'3\xff\x15='
tbag3
(g4
(I0
tS'b'
tRp1254
(I1
(tg7
I00
S'\x0cK\x1d='
tbag3
(g4
(I0
tS'b'
tRp1255
(I1
(tg7
I00
S'\xa96-='
tbag3
(g4
(I0
tS'b'
tRp1256
(I1
(tg7
I00
S'\xc5\x02(='
tbag3
(g4
(I0
tS'b'
tRp1257
(I1
(tg7
I00
S'\xbf\x10\x1d='
tbag3
(g4
(I0
tS'b'
tRp1258
(I1
(tg7
I00
S'\x89\x06\x18='
tbag3
(g4
(I0
tS'b'
tRp1259
(I1
(tg7
I00
S'\x18\xb6\x13='
tbag3
(g4
(I0
tS'b'
tRp1260
(I1
(tg7
I00
S'w=\x11='
tbag3
(g4
(I0
tS'b'
tRp1261
(I1
(tg7
I00
S'dh\x0f='
tbag3
(g4
(I0
tS'b'
tRp1262
(I1
(tg7
I00
S'\x0bF\x12='
tbag3
(g4
(I0
tS'b'
tRp1263
(I1
(tg7
I00
S'2\xd7\x08='
tbag3
(g4
(I0
tS'b'
tRp1264
(I1
(tg7
I00
S'\xa4"\x1d='
tbag3
(g4
(I0
tS'b'
tRp1265
(I1
(tg7
I00
S'\xdd\xf32='
tbag3
(g4
(I0
tS'b'
tRp1266
(I1
(tg7
I00
S'\x92\x957='
tbag3
(g4
(I0
tS'b'
tRp1267
(I1
(tg7
I00
S'o,B='
tbag3
(g4
(I0
tS'b'
tRp1268
(I1
(tg7
I00
S'R\x84D='
tbag3
(g4
(I0
tS'b'
tRp1269
(I1
(tg7
I00
S'\x8d\xd24='
tbag3
(g4
(I0
tS'b'
tRp1270
(I1
(tg7
I00
S'\x8d\x93\x1e='
tbag3
(g4
(I0
tS'b'
tRp1271
(I1
(tg7
I00
S'\x1dA\x07='
tbag3
(g4
(I0
tS'b'
tRp1272
(I1
(tg7
I00
S'y\x11\xe4<'
tbag3
(g4
(I0
tS'b'
tRp1273
(I1
(tg7
I00
S'\xf7\xc3\xd4<'
tbag3
(g4
(I0
tS'b'
tRp1274
(I1
(tg7
I00
S'|j\xe3<'
tbag3
(g4
(I0
tS'b'
tRp1275
(I1
(tg7
I00
S'NF\n='
tbag3
(g4
(I0
tS'b'
tRp1276
(I1
(tg7
I00
S'iI#='
tbag3
(g4
(I0
tS'b'
tRp1277
(I1
(tg7
I00
S'OWG='
tbag3
(g4
(I0
tS'b'
tRp1278
(I1
(tg7
I00
S'\x14\xa8b='
tbag3
(g4
(I0
tS'b'
tRp1279
(I1
(tg7
I00
S'=\x02g='
tbag3
(g4
(I0
tS'b'
tRp1280
(I1
(tg7
I00
S"[\xa5'="
tbag3
(g4
(I0
tS'b'
tRp1281
(I1
(tg7
I00
S'7\xbb\x11='
tbag3
(g4
(I0
tS'b'
tRp1282
(I1
(tg7
I00
S'\xd3%\x16='
tbag3
(g4
(I0
tS'b'
tRp1283
(I1
(tg7
I00
S"N'\x07="
tbag3
(g4
(I0
tS'b'
tRp1284
(I1
(tg7
I00
S'P\x86\xf9<'
tbag3
(g4
(I0
tS'b'
tRp1285
(I1
(tg7
I00
S'^\x9f\x1b='
tbag3
(g4
(I0
tS'b'
tRp1286
(I1
(tg7
I00
S'\xe94"='
tbag3
(g4
(I0
tS'b'
tRp1287
(I1
(tg7
I00
S'\x89\n.='
tbag3
(g4
(I0
tS'b'
tRp1288
(I1
(tg7
I00
S'\xf4\xd7(='
tbag3
(g4
(I0
tS'b'
tRp1289
(I1
(tg7
I00
S'\x07\x83\x13='
tbag3
(g4
(I0
tS'b'
tRp1290
(I1
(tg7
I00
S'\x92\xd1\t='
tbag3
(g4
(I0
tS'b'
tRp1291
(I1
(tg7
I00
S';\x9a\x05='
tbag3
(g4
(I0
tS'b'
tRp1292
(I1
(tg7
I00
S'\x1c\xae\x12='
tbag3
(g4
(I0
tS'b'
tRp1293
(I1
(tg7
I00
S'\xd6\xa1)='
tbag3
(g4
(I0
tS'b'
tRp1294
(I1
(tg7
I00
S'\xe6\x06$='
tbag3
(g4
(I0
tS'b'
tRp1295
(I1
(tg7
I00
S'&\xdc;='
tbag3
(g4
(I0
tS'b'
tRp1296
(I1
(tg7
I00
S'\x9bP*='
tbag3
(g4
(I0
tS'b'
tRp1297
(I1
(tg7
I00
S'\xe0\x920='
tbag3
(g4
(I0
tS'b'
tRp1298
(I1
(tg7
I00
S'\x97\xa63='
tbag3
(g4
(I0
tS'b'
tRp1299
(I1
(tg7
I00
S'\xe5\xbe/='
tbag3
(g4
(I0
tS'b'
tRp1300
(I1
(tg7
I00
S'\x12\xd4\x0f='
tbag3
(g4
(I0
tS'b'
tRp1301
(I1
(tg7
I00
S'\xb8\x93\n='
tbag3
(g4
(I0
tS'b'
tRp1302
(I1
(tg7
I00
S'\n\x81\x17='
tbag3
(g4
(I0
tS'b'
tRp1303
(I1
(tg7
I00
S'\xc4\x85\x12='
tbag3
(g4
(I0
tS'b'
tRp1304
(I1
(tg7
I00
S'\xb7\xf9\x18='
tbag3
(g4
(I0
tS'b'
tRp1305
(I1
(tg7
I00
S"A\xee'="
tbag3
(g4
(I0
tS'b'
tRp1306
(I1
(tg7
I00
S'@\x80#='
tbag3
(g4
(I0
tS'b'
tRp1307
(I1
(tg7
I00
S'&\x83\x19='
tbag3
(g4
(I0
tS'b'
tRp1308
(I1
(tg7
I00
S'\x13\xca\x14='
tbag3
(g4
(I0
tS'b'
tRp1309
(I1
(tg7
I00
S'<7\x10='
tbag3
(g4
(I0
tS'b'
tRp1310
(I1
(tg7
I00
S'\x87\xef\r='
tbag3
(g4
(I0
tS'b'
tRp1311
(I1
(tg7
I00
S'\xf7N\x0c='
tbag3
(g4
(I0
tS'b'
tRp1312
(I1
(tg7
I00
S'\t\x1f\x0f='
tbag3
(g4
(I0
tS'b'
tRp1313
(I1
(tg7
I00
S'W\xcb\x05='
tbag3
(g4
(I0
tS'b'
tRp1314
(I1
(tg7
I00
S'c8\x1a='
tbag3
(g4
(I0
tS'b'
tRp1315
(I1
(tg7
I00
S'\x8f\xdc/='
tbag3
(g4
(I0
tS'b'
tRp1316
(I1
(tg7
I00
S'\x1e\xaf4='
tbag3
(g4
(I0
tS'b'
tRp1317
(I1
(tg7
I00
S'\xf0\xce>='
tbag3
(g4
(I0
tS'b'
tRp1318
(I1
(tg7
I00
S'\xf0\x10@='
tbag3
(g4
(I0
tS'b'
tRp1319
(I1
(tg7
I00
S'\x0140='
tbag3
(g4
(I0
tS'b'
tRp1320
(I1
(tg7
I00
S'\xed\xd0\x1a='
tbag3
(g4
(I0
tS'b'
tRp1321
(I1
(tg7
I00
S'[\x0e\x04='
tbag3
(g4
(I0
tS'b'
tRp1322
(I1
(tg7
I00
S'\x87\xa0\xde<'
tbag3
(g4
(I0
tS'b'
tRp1323
(I1
(tg7
I00
S'\xccW\xcf<'
tbag3
(g4
(I0
tS'b'
tRp1324
(I1
(tg7
I00
S'\x0eg\xde<'
tbag3
(g4
(I0
tS'b'
tRp1325
(I1
(tg7
I00
S'\xc2\x85\x07='
tbag3
(g4
(I0
tS'b'
tRp1326
(I1
(tg7
I00
S'@\x9d ='
tbag3
(g4
(I0
tS'b'
tRp1327
(I1
(tg7
I00
S'4<C='
tbag3
(g4
(I0
tS'b'
tRp1328
(I1
(tg7
I00
S'X\xe2\\='
tbag3
(g4
(I0
tS'b'
tRp1329
(I1
(tg7
I00
S'~\x07_='
tbag3
(g4
(I0
tS'b'
tRp1330
(I1
(tg7
I00
S"'6$="
tbag3
(g4
(I0
tS'b'
tRp1331
(I1
(tg7
I00
S'L\xb9\x10='
tbag3
(g4
(I0
tS'b'
tRp1332
(I1
(tg7
I00
S'\xf2/\x14='
tbag3
(g4
(I0
tS'b'
tRp1333
(I1
(tg7
I00
S'\x02\x19\x05='
tbag3
(g4
(I0
tS'b'
tRp1334
(I1
(tg7
I00
S'\x07\xe1\xf4<'
tbag3
(g4
(I0
tS'b'
tRp1335
(I1
(tg7
I00
S'\x8a\n\x18='
tbag3
(g4
(I0
tS'b'
tRp1336
(I1
(tg7
I00
S'>\xed\x1d='
tbag3
(g4
(I0
tS'b'
tRp1337
(I1
(tg7
I00
S'7\xdc(='
tbag3
(g4
(I0
tS'b'
tRp1338
(I1
(tg7
I00
S'\xfev$='
tbag3
(g4
(I0
tS'b'
tRp1339
(I1
(tg7
I00
S'\x93\x9d\x0f='
tbag3
(g4
(I0
tS'b'
tRp1340
(I1
(tg7
I00
S'\xcc\xad\x06='
tbag3
(g4
(I0
tS'b'
tRp1341
(I1
(tg7
I00
S'\x9b\xeb\x02='
tbag3
(g4
(I0
tS'b'
tRp1342
(I1
(tg7
I00
S'"\xc2\x10='
tbag3
(g4
(I0
tS'b'
tRp1343
(I1
(tg7
I00
S"\x1d\xa3'="
tbag3
(g4
(I0
tS'b'
tRp1344
(I1
(tg7
I00
S'\xe7\xbf!='
tbag3
(g4
(I0
tS'b'
tRp1345
(I1
(tg7
I00
S'\xa7\x198='
tbag3
(g4
(I0
tS'b'
tRp1346
(I1
(tg7
I00
S"'\xd0&="
tbag3
(g4
(I0
tS'b'
tRp1347
(I1
(tg7
I00
S'a\x94+='
tbag3
(g4
(I0
tS'b'
tRp1348
(I1
(tg7
I00
S'\x87\xe3-='
tbag3
(g4
(I0
tS'b'
tRp1349
(I1
(tg7
I00
S'\x89\xbe*='
tbag3
(g4
(I0
tS'b'
tRp1350
(I1
(tg7
I00
S'R+\x0c='
tbag3
(g4
(I0
tS'b'
tRp1351
(I1
(tg7
I00
S'\x02\x93\x07='
tbag3
(g4
(I0
tS'b'
tRp1352
(I1
(tg7
I00
S'h\x86\x14='
tbag3
(g4
(I0
tS'b'
tRp1353
(I1
(tg7
I00
S'\x04\xba\x0f='
tbag3
(g4
(I0
tS'b'
tRp1354
(I1
(tg7
I00
S'q\xf3\x15='
tbag3
(g4
(I0
tS'b'
tRp1355
(I1
(tg7
I00
S'\xd9"$='
tbag3
(g4
(I0
tS'b'
tRp1356
(I1
(tg7
I00
S'\xb1# ='
tbag3
(g4
(I0
tS'b'
tRp1357
(I1
(tg7
I00
S'\xe3\x05\x17='
tbag3
(g4
(I0
tS'b'
tRp1358
(I1
(tg7
I00
S'\xa0C\x12='
tbag3
(g4
(I0
tS'b'
tRp1359
(I1
(tg7
I00
S'Q\x06\r='
tbag3
(g4
(I0
tS'b'
tRp1360
(I1
(tg7
I00
S'\x9a\xe7\n='
tbag3
(g4
(I0
tS'b'
tRp1361
(I1
(tg7
I00
S'\xd6\x80\t='
tbag3
(g4
(I0
tS'b'
tRp1362
(I1
(tg7
I00
S'\x19\x87\x0c='
tbag3
(g4
(I0
tS'b'
tRp1363
(I1
(tg7
I00
S'\xef\xd7\x03='
tbag3
(g4
(I0
tS'b'
tRp1364
(I1
(tg7
I00
S'=S\x17='
tbag3
(g4
(I0
tS'b'
tRp1365
(I1
(tg7
I00
S'\x96\\,='
tbag3
(g4
(I0
tS'b'
tRp1366
(I1
(tg7
I00
S'\xfc\xad0='
tbag3
(g4
(I0
tS'b'
tRp1367
(I1
(tg7
I00
S'y[9='
tbag3
(g4
(I0
tS'b'
tRp1368
(I1
(tg7
I00
S'\xc5b9='
tbag3
(g4
(I0
tS'b'
tRp1369
(I1
(tg7
I00
S'\xe1<)='
tbag3
(g4
(I0
tS'b'
tRp1370
(I1
(tg7
I00
S'\x9c\x9d\x16='
tbag3
(g4
(I0
tS'b'
tRp1371
(I1
(tg7
I00
S'\xd9\xaf\x01='
tbag3
(g4
(I0
tS'b'
tRp1372
(I1
(tg7
I00
S'\xbdh\xdb<'
tbag3
(g4
(I0
tS'b'
tRp1373
(I1
(tg7
I00
S'>\r\xcd<'
tbag3
(g4
(I0
tS'b'
tRp1374
(I1
(tg7
I00
S'\xbd\xca\xdd<'
tbag3
(g4
(I0
tS'b'
tRp1375
(I1
(tg7
I00
S'\xec\xd1\x08='
tbag3
(g4
(I0
tS'b'
tRp1376
(I1
(tg7
I00
S'\xda0"='
tbag3
(g4
(I0
tS'b'
tRp1377
(I1
(tg7
I00
S'FTB='
tbag3
(g4
(I0
tS'b'
tRp1378
(I1
(tg7
I00
S'p\xcfV='
tbag3
(g4
(I0
tS'b'
tRp1379
(I1
(tg7
I00
S'k!T='
tbag3
(g4
(I0
tS'b'
tRp1380
(I1
(tg7
I00
S'\x90y\x1d='
tbag3
(g4
(I0
tS'b'
tRp1381
(I1
(tg7
I00
S'\x12\xd2\x0b='
tbag3
(g4
(I0
tS'b'
tRp1382
(I1
(tg7
I00
S'~\x8a\x0f='
tbag3
(g4
(I0
tS'b'
tRp1383
(I1
(tg7
I00
S'\xdf\x98\x01='
tbag3
(g4
(I0
tS'b'
tRp1384
(I1
(tg7
I00
S'\xcb\xd4\xef<'
tbag3
(g4
(I0
tS'b'
tRp1385
(I1
(tg7
I00
S'\xd4\x17\x16='
tbag3
(g4
(I0
tS'b'
tRp1386
(I1
(tg7
I00
S'<\xe4\x1c='
tbag3
(g4
(I0
tS'b'
tRp1387
(I1
(tg7
I00
S"\xdec'="
tbag3
(g4
(I0
tS'b'
tRp1388
(I1
(tg7
I00
S'v\x90"='
tbag3
(g4
(I0
tS'b'
tRp1389
(I1
(tg7
I00
S'\x8c\xdc\x0c='
tbag3
(g4
(I0
tS'b'
tRp1390
(I1
(tg7
I00
S'Q \x04='
tbag3
(g4
(I0
tS'b'
tRp1391
(I1
(tg7
I00
S'O\x98\x00='
tbag3
(g4
(I0
tS'b'
tRp1392
(I1
(tg7
I00
S'\xb4\xcb\x0c='
tbag3
(g4
(I0
tS'b'
tRp1393
(I1
(tg7
I00
S'G\x80"='
tbag3
(g4
(I0
tS'b'
tRp1394
(I1
(tg7
I00
S'VA\x1c='
tbag3
(g4
(I0
tS'b'
tRp1395
(I1
(tg7
I00
S'R\xd91='
tbag3
(g4
(I0
tS'b'
tRp1396
(I1
(tg7
I00
S'y\x7f"='
tbag3
(g4
(I0
tS'b'
tRp1397
(I1
(tg7
I00
S"\xa7\x96'="
tbag3
(g4
(I0
tS'b'
tRp1398
(I1
(tg7
I00
S'>\xb1+='
tbag3
(g4
(I0
tS'b'
tRp1399
(I1
(tg7
I00
S'Au)='
tbag3
(g4
(I0
tS'b'
tRp1400
(I1
(tg7
I00
S'y\xd5\n='
tbag3
(g4
(I0
tS'b'
tRp1401
(I1
(tg7
I00
S' \xcf\x05='
tbag3
(g4
(I0
tS'b'
tRp1402
(I1
(tg7
I00
S'ns\x12='
tbag3
(g4
(I0
tS'b'
tRp1403
(I1
(tg7
I00
S'VE\r='
tbag3
(g4
(I0
tS'b'
tRp1404
(I1
(tg7
I00
S'\x84O\x12='
tbag3
(g4
(I0
tS'b'
tRp1405
(I1
(tg7
I00
S'\xc1n\x1e='
tbag3
(g4
(I0
tS'b'
tRp1406
(I1
(tg7
I00
S'\xc2\x1e\x1c='
tbag3
(g4
(I0
tS'b'
tRp1407
(I1
(tg7
I00
S'\x9b\xc7\x13='
tbag3
(g4
(I0
tS'b'
tRp1408
(I1
(tg7
I00
S'O\x00\x10='
tbag3
(g4
(I0
tS'b'
tRp1409
(I1
(tg7
I00
S'2{\n='
tbag3
(g4
(I0
tS'b'
tRp1410
(I1
(tg7
I00
S'\xf6\x0c\x08='
tbag3
(g4
(I0
tS'b'
tRp1411
(I1
(tg7
I00
S'K\xe9\x05='
tbag3
(g4
(I0
tS'b'
tRp1412
(I1
(tg7
I00
S';O\t='
tbag3
(g4
(I0
tS'b'
tRp1413
(I1
(tg7
I00
S'\xd6\x1a\x01='
tbag3
(g4
(I0
tS'b'
tRp1414
(I1
(tg7
I00
S'@\xfa\x13='
tbag3
(g4
(I0
tS'b'
tRp1415
(I1
(tg7
I00
S'\x19I(='
tbag3
(g4
(I0
tS'b'
tRp1416
(I1
(tg7
I00
S'\x8a5.='
tbag3
(g4
(I0
tS'b'
tRp1417
(I1
(tg7
I00
S'\x9e\xa37='
tbag3
(g4
(I0
tS'b'
tRp1418
(I1
(tg7
I00
S'\x87\x0b7='
tbag3
(g4
(I0
tS'b'
tRp1419
(I1
(tg7
I00
S"K\x1b'="
tbag3
(g4
(I0
tS'b'
tRp1420
(I1
(tg7
I00
S'\x8e\t\x15='
tbag3
(g4
(I0
tS'b'
tRp1421
(I1
(tg7
I00
S'\xa1\xae\xff<'
tbag3
(g4
(I0
tS'b'
tRp1422
(I1
(tg7
I00
S'\xe9\xe5\xd7<'
tbag3
(g4
(I0
tS'b'
tRp1423
(I1
(tg7
I00
S'\x079\xc8<'
tbag3
(g4
(I0
tS'b'
tRp1424
(I1
(tg7
I00
S'\xe2\x08\xd8<'
tbag3
(g4
(I0
tS'b'
tRp1425
(I1
(tg7
I00
S'\x90\xe6\x04='
tbag3
(g4
(I0
tS'b'
tRp1426
(I1
(tg7
I00
S'\x89\\\x1f='
tbag3
(g4
(I0
tS'b'
tRp1427
(I1
(tg7
I00
S'\xa0\x07=='
tbag3
(g4
(I0
tS'b'
tRp1428
(I1
(tg7
I00
S'\xe1\xd9P='
tbag3
(g4
(I0
tS'b'
tRp1429
(I1
(tg7
I00
S'\n\xdcK='
tbag3
(g4
(I0
tS'b'
tRp1430
(I1
(tg7
I00
S'/\x80\x1a='
tbag3
(g4
(I0
tS'b'
tRp1431
(I1
(tg7
I00
S'\xa2\x04\t='
tbag3
(g4
(I0
tS'b'
tRp1432
(I1
(tg7
I00
S'r\x90\r='
tbag3
(g4
(I0
tS'b'
tRp1433
(I1
(tg7
I00
S'\x95L\x00='
tbag3
(g4
(I0
tS'b'
tRp1434
(I1
(tg7
I00
S'\xd5\xbb\xee<'
tbag3
(g4
(I0
tS'b'
tRp1435
(I1
(tg7
I00
S'\xe7\x8d\x16='
tbag3
(g4
(I0
tS'b'
tRp1436
(I1
(tg7
I00
S'=*\x1c='
tbag3
(g4
(I0
tS'b'
tRp1437
(I1
(tg7
I00
S'V\xd7$='
tbag3
(g4
(I0
tS'b'
tRp1438
(I1
(tg7
I00
S'\x9d\t\x1e='
tbag3
(g4
(I0
tS'b'
tRp1439
(I1
(tg7
I00
S'\xd4\xb9\x07='
tbag3
(g4
(I0
tS'b'
tRp1440
(I1
(tg7
I00
S'\x03M\xfe<'
tbag3
(g4
(I0
tS'b'
tRp1441
(I1
(tg7
I00
S'0\n\xf7<'
tbag3
(g4
(I0
tS'b'
tRp1442
(I1
(tg7
I00
S'\xa0\x93\x08='
tbag3
(g4
(I0
tS'b'
tRp1443
(I1
(tg7
I00
S'\xa7\x89\x1e='
tbag3
(g4
(I0
tS'b'
tRp1444
(I1
(tg7
I00
S'\xb3\xa9\x19='
tbag3
(g4
(I0
tS'b'
tRp1445
(I1
(tg7
I00
S'\x13F0='
tbag3
(g4
(I0
tS'b'
tRp1446
(I1
(tg7
I00
S'C\x97!='
tbag3
(g4
(I0
tS'b'
tRp1447
(I1
(tg7
I00
S'G<%='
tbag3
(g4
(I0
tS'b'
tRp1448
(I1
(tg7
I00
S'b\x16)='
tbag3
(g4
(I0
tS'b'
tRp1449
(I1
(tg7
I00
S'e\x1f&='
tbag3
(g4
(I0
tS'b'
tRp1450
(I1
(tg7
I00
S'B\xc8\x07='
tbag3
(g4
(I0
tS'b'
tRp1451
(I1
(tg7
I00
S'Y\xc8\x02='
tbag3
(g4
(I0
tS'b'
tRp1452
(I1
(tg7
I00
S'I\x05\x0f='
tbag3
(g4
(I0
tS'b'
tRp1453
(I1
(tg7
I00
S'\xa8\xa0\t='
tbag3
(g4
(I0
tS'b'
tRp1454
(I1
(tg7
I00
S'Ri\x0e='
tbag3
(g4
(I0
tS'b'
tRp1455
(I1
(tg7
I00
S'\xf1%\x19='
tbag3
(g4
(I0
tS'b'
tRp1456
(I1
(tg7
I00
S'i\xae\x19='
tbag3
(g4
(I0
tS'b'
tRp1457
(I1
(tg7
I00
S'\x10\x88\x12='
tbag3
(g4
(I0
tS'b'
tRp1458
(I1
(tg7
I00
S'/C\x0e='
tbag3
(g4
(I0
tS'b'
tRp1459
(I1
(tg7
I00
S'H&\t='
tbag3
(g4
(I0
tS'b'
tRp1460
(I1
(tg7
I00
S'\xfc\xc4\x06='
tbag3
(g4
(I0
tS'b'
tRp1461
(I1
(tg7
I00
S'S\n\x04='
tbag3
(g4
(I0
tS'b'
tRp1462
(I1
(tg7
I00
S']/\x07='
tbag3
(g4
(I0
tS'b'
tRp1463
(I1
(tg7
I00
S'\xb97\xfe<'
tbag3
(g4
(I0
tS'b'
tRp1464
(I1
(tg7
I00
S'!|\x11='
tbag3
(g4
(I0
tS'b'
tRp1465
(I1
(tg7
I00
S'\x85\x05$='
tbag3
(g4
(I0
tS'b'
tRp1466
(I1
(tg7
I00
S'\x9c\x9f(='
tbag3
(g4
(I0
tS'b'
tRp1467
(I1
(tg7
I00
S'6\xef0='
tbag3
(g4
(I0
tS'b'
tRp1468
(I1
(tg7
I00
S's\xd60='
tbag3
(g4
(I0
tS'b'
tRp1469
(I1
(tg7
I00
S'\xd0s!='
tbag3
(g4
(I0
tS'b'
tRp1470
(I1
(tg7
I00
S'\ts\x12='
tbag3
(g4
(I0
tS'b'
tRp1471
(I1
(tg7
I00
S'\x8a\xb7\xfd<'
tbag3
(g4
(I0
tS'b'
tRp1472
(I1
(tg7
I00
S'9P\xd6<'
tbag3
(g4
(I0
tS'b'
tRp1473
(I1
(tg7
I00
S'\x1b\xa1\xc7<'
tbag3
(g4
(I0
tS'b'
tRp1474
(I1
(tg7
I00
S'W\xce\xd9<'
tbag3
(g4
(I0
tS'b'
tRp1475
(I1
(tg7
I00
S'\x9b/\x07='
tbag3
(g4
(I0
tS'b'
tRp1476
(I1
(tg7
I00
S'\x19G!='
tbag3
(g4
(I0
tS'b'
tRp1477
(I1
(tg7
I00
S'EN;='
tbag3
(g4
(I0
tS'b'
tRp1478
(I1
(tg7
I00
S'\x14\xc5J='
tbag3
(g4
(I0
tS'b'
tRp1479
(I1
(tg7
I00
S'\xc4\x84A='
tbag3
(g4
(I0
tS'b'
tRp1480
(I1
(tg7
I00
S'`\xf9\x13='
tbag3
(g4
(I0
tS'b'
tRp1481
(I1
(tg7
I00
S'\x9ff\x03='
tbag3
(g4
(I0
tS'b'
tRp1482
(I1
(tg7
I00
S'\x7f\x1f\t='
tbag3
(g4
(I0
tS'b'
tRp1483
(I1
(tg7
I00
S"F'\xfb<"
tbag3
(g4
(I0
tS'b'
tRp1484
(I1
(tg7
I00
S'\x92\x8c\xeb<'
tbag3
(g4
(I0
tS'b'
tRp1485
(I1
(tg7
I00
S'\x00\xeb\x15='
tbag3
(g4
(I0
tS'b'
tRp1486
(I1
(tg7
I00
S'*\xeb\x1c='
tbag3
(g4
(I0
tS'b'
tRp1487
(I1
(tg7
I00
S'3\x1c%='
tbag3
(g4
(I0
tS'b'
tRp1488
(I1
(tg7
I00
S'p\xfc\x1c='
tbag3
(g4
(I0
tS'b'
tRp1489
(I1
(tg7
I00
S'@\xf6\x04='
tbag3
(g4
(I0
tS'b'
tRp1490
(I1
(tg7
I00
S'T\xc8\xf7<'
tbag3
(g4
(I0
tS'b'
tRp1491
(I1
(tg7
I00
S'J\xcd\xee<'
tbag3
(g4
(I0
tS'b'
tRp1492
(I1
(tg7
I00
S'1\n\x04='
tbag3
(g4
(I0
tS'b'
tRp1493
(I1
(tg7
I00
S'KS\x19='
tbag3
(g4
(I0
tS'b'
tRp1494
(I1
(tg7
I00
S'\x06\xe2\x14='
tbag3
(g4
(I0
tS'b'
tRp1495
(I1
(tg7
I00
S"'\xc5+="
tbag3
(g4
(I0
tS'b'
tRp1496
(I1
(tg7
I00
S't. ='
tbag3
(g4
(I0
tS'b'
tRp1497
(I1
(tg7
I00
S"\xde'$="
tbag3
(g4
(I0
tS'b'
tRp1498
(I1
(tg7
I00
S' \n)='
tbag3
(g4
(I0
tS'b'
tRp1499
(I1
(tg7
I00
S'\x13M%='
tbag3
(g4
(I0
tS'b'
tRp1500
(I1
(tg7
I00
S'k\xbe\x06='
tbag3
(g4
(I0
tS'b'
tRp1501
(I1
(tg7
I00
S'V\x9e\x00='
tbag3
(g4
(I0
tS'b'
tRp1502
(I1
(tg7
I00
S'\xf9\xb9\x0b='
tbag3
(g4
(I0
tS'b'
tRp1503
(I1
(tg7
I00
S'\xc3k\x05='
tbag3
(g4
(I0
tS'b'
tRp1504
(I1
(tg7
I00
S';g\t='
tbag3
(g4
(I0
tS'b'
tRp1505
(I1
(tg7
I00
S'\xe3\x9d\x13='
tbag3
(g4
(I0
tS'b'
tRp1506
(I1
(tg7
I00
S'f\xaf\x15='
tbag3
(g4
(I0
tS'b'
tRp1507
(I1
(tg7
I00
S'\x88)\x10='
tbag3
(g4
(I0
tS'b'
tRp1508
(I1
(tg7
I00
S'\x90T\x0c='
tbag3
(g4
(I0
tS'b'
tRp1509
(I1
(tg7
I00
S'}\x00\x07='
tbag3
(g4
(I0
tS'b'
tRp1510
(I1
(tg7
I00
S'\xa3\x86\x04='
tbag3
(g4
(I0
tS'b'
tRp1511
(I1
(tg7
I00
S'\x8b\x84\x01='
tbag3
(g4
(I0
tS'b'
tRp1512
(I1
(tg7
I00
S'\x19\xe3\x04='
tbag3
(g4
(I0
tS'b'
tRp1513
(I1
(tg7
I00
S'\xf8\x84\xfa<'
tbag3
(g4
(I0
tS'b'
tRp1514
(I1
(tg7
I00
S's\xdf\x0f='
tbag3
(g4
(I0
tS'b'
tRp1515
(I1
(tg7
I00
S'$="='
tbag3
(g4
(I0
tS'b'
tRp1516
(I1
(tg7
I00
S'\xa6F&='
tbag3
(g4
(I0
tS'b'
tRp1517
(I1
(tg7
I00
S'\xc9\xb9-='
tbag3
(g4
(I0
tS'b'
tRp1518
(I1
(tg7
I00
S'\xb6\xf1,='
tbag3
(g4
(I0
tS'b'
tRp1519
(I1
(tg7
I00
S'\xd6\x04\x1c='
tbag3
(g4
(I0
tS'b'
tRp1520
(I1
(tg7
I00
S'\xbb\xb1\x0e='
tbag3
(g4
(I0
tS'b'
tRp1521
(I1
(tg7
I00
S'\xf7\x15\xf8<'
tbag3
(g4
(I0
tS'b'
tRp1522
(I1
(tg7
I00
S'\x10\x17\xd2<'
tbag3
(g4
(I0
tS'b'
tRp1523
(I1
(tg7
I00
S'I\xd0\xc4<'
tbag3
(g4
(I0
tS'b'
tRp1524
(I1
(tg7
I00
S'\xb5\xfc\xd7<'
tbag3
(g4
(I0
tS'b'
tRp1525
(I1
(tg7
I00
S'WO\x07='
tbag3
(g4
(I0
tS'b'
tRp1526
(I1
(tg7
I00
S'\x87\xc9!='
tbag3
(g4
(I0
tS'b'
tRp1527
(I1
(tg7
I00
S'\xf2*9='
tbag3
(g4
(I0
tS'b'
tRp1528
(I1
(tg7
I00
S'\x97\xefE='
tbag3
(g4
(I0
tS'b'
tRp1529
(I1
(tg7
I00
S'\xf9\x93:='
tbag3
(g4
(I0
tS'b'
tRp1530
(I1
(tg7
I00
S'\x94\x99\x0f='
tbag3
(g4
(I0
tS'b'
tRp1531
(I1
(tg7
I00
S'\xf2A\xfd<'
tbag3
(g4
(I0
tS'b'
tRp1532
(I1
(tg7
I00
S'\x8df\x04='
tbag3
(g4
(I0
tS'b'
tRp1533
(I1
(tg7
I00
S'w\xe6\xf3<'
tbag3
(g4
(I0
tS'b'
tRp1534
(I1
(tg7
I00
S'T+\xe6<'
tbag3
(g4
(I0
tS'b'
tRp1535
(I1
(tg7
I00
S'Y\x90\x13='
tbag3
(g4
(I0
tS'b'
tRp1536
(I1
(tg7
I00
S'\x80\x00\x1c='
tbag3
(g4
(I0
tS'b'
tRp1537
(I1
(tg7
I00
S'j\xd4%='
tbag3
(g4
(I0
tS'b'
tRp1538
(I1
(tg7
I00
S't\xc6\x1d='
tbag3
(g4
(I0
tS'b'
tRp1539
(I1
(tg7
I00
S'\x8fm\x04='
tbag3
(g4
(I0
tS'b'
tRp1540
(I1
(tg7
I00
S'\x0f\x82\xf4<'
tbag3
(g4
(I0
tS'b'
tRp1541
(I1
(tg7
I00
S'\x0fk\xea<'
tbag3
(g4
(I0
tS'b'
tRp1542
(I1
(tg7
I00
S'\xa4\xc1\x00='
tbag3
(g4
(I0
tS'b'
tRp1543
(I1
(tg7
I00
S'\x89\xff\x14='
tbag3
(g4
(I0
tS'b'
tRp1544
(I1
(tg7
I00
S'\xcc\x10\x10='
tbag3
(g4
(I0
tS'b'
tRp1545
(I1
(tg7
I00
S'\xbb1&='
tbag3
(g4
(I0
tS'b'
tRp1546
(I1
(tg7
I00
S'&\xe1\x1b='
tbag3
(g4
(I0
tS'b'
tRp1547
(I1
(tg7
I00
S'-, ='
tbag3
(g4
(I0
tS'b'
tRp1548
(I1
(tg7
I00
S'+\xdb&='
tbag3
(g4
(I0
tS'b'
tRp1549
(I1
(tg7
I00
S'\xef\xbf#='
tbag3
(g4
(I0
tS'b'
tRp1550
(I1
(tg7
I00
S':\xcb\x05='
tbag3
(g4
(I0
tS'b'
tRp1551
(I1
(tg7
I00
S'\xb5\xc6\xff<'
tbag3
(g4
(I0
tS'b'
tRp1552
(I1
(tg7
I00
S'\xae\x89\n='
tbag3
(g4
(I0
tS'b'
tRp1553
(I1
(tg7
I00
S'\xbc\x02\x03='
tbag3
(g4
(I0
tS'b'
tRp1554
(I1
(tg7
I00
S'\xd99\x06='
tbag3
(g4
(I0
tS'b'
tRp1555
(I1
(tg7
I00
S'\x94#\x0f='
tbag3
(g4
(I0
tS'b'
tRp1556
(I1
(tg7
I00
S')\xc6\x11='
tbag3
(g4
(I0
tS'b'
tRp1557
(I1
(tg7
I00
S'\xc2o\r='
tbag3
(g4
(I0
tS'b'
tRp1558
(I1
(tg7
I00
S'\x93\xdd\t='
tbag3
(g4
(I0
tS'b'
tRp1559
(I1
(tg7
I00
S'\x04y\x04='
tbag3
(g4
(I0
tS'b'
tRp1560
(I1
(tg7
I00
S'\xa6>\x03='
tbag3
(g4
(I0
tS'b'
tRp1561
(I1
(tg7
I00
S'\xbaW\x00='
tbag3
(g4
(I0
tS'b'
tRp1562
(I1
(tg7
I00
S'wM\x03='
tbag3
(g4
(I0
tS'b'
tRp1563
(I1
(tg7
I00
S'\x06\x93\xf6<'
tbag3
(g4
(I0
tS'b'
tRp1564
(I1
(tg7
I00
S'\x01\xcb\r='
tbag3
(g4
(I0
tS'b'
tRp1565
(I1
(tg7
I00
S'7\xdd\x1f='
tbag3
(g4
(I0
tS'b'
tRp1566
(I1
(tg7
I00
S'\xcex#='
tbag3
(g4
(I0
tS'b'
tRp1567
(I1
(tg7
I00
S'\x01\xc1)='
tbag3
(g4
(I0
tS'b'
tRp1568
(I1
(tg7
I00
S'\x80\xa2)='
tbag3
(g4
(I0
tS'b'
tRp1569
(I1
(tg7
I00
S'7J\x18='
tbag3
(g4
(I0
tS'b'
tRp1570
(I1
(tg7
I00
S'\xcd\xca\x0c='
tbag3
(g4
(I0
tS'b'
tRp1571
(I1
(tg7
I00
S'\x1b\x86\xf4<'
tbag3
(g4
(I0
tS'b'
tRp1572
(I1
(tg7
I00
S'\xc4.\xcf<'
tbag3
(g4
(I0
tS'b'
tRp1573
(I1
(tg7
I00
S'\xce\xdf\xc1<'
tbag3
(g4
(I0
tS'b'
tRp1574
(I1
(tg7
I00
S'\x98\x18\xd6<'
tbag3
(g4
(I0
tS'b'
tRp1575
(I1
(tg7
I00
S'\xb7\xe9\x05='
tbag3
(g4
(I0
tS'b'
tRp1576
(I1
(tg7
I00
S'\xe6\xe4\x1d='
tbag3
(g4
(I0
tS'b'
tRp1577
(I1
(tg7
I00
S'\x1c\x874='
tbag3
(g4
(I0
tS'b'
tRp1578
(I1
(tg7
I00
S'\xdc\xddA='
tbag3
(g4
(I0
tS'b'
tRp1579
(I1
(tg7
I00
S'4r3='
tbag3
(g4
(I0
tS'b'
tRp1580
(I1
(tg7
I00
S'\xe6S\x0b='
tbag3
(g4
(I0
tS'b'
tRp1581
(I1
(tg7
I00
S'B\x15\xff<'
tbag3
(g4
(I0
tS'b'
tRp1582
(I1
(tg7
I00
S'2Z\x06='
tbag3
(g4
(I0
tS'b'
tRp1583
(I1
(tg7
I00
S'\xbc\xfb\xf6<'
tbag3
(g4
(I0
tS'b'
tRp1584
(I1
(tg7
I00
S'i\xe7\xe4<'
tbag3
(g4
(I0
tS'b'
tRp1585
(I1
(tg7
I00
S'\x80\xf9\x10='
tbag3
(g4
(I0
tS'b'
tRp1586
(I1
(tg7
I00
S'\xf6j\x19='
tbag3
(g4
(I0
tS'b'
tRp1587
(I1
(tg7
I00
S'\t\xd1!='
tbag3
(g4
(I0
tS'b'
tRp1588
(I1
(tg7
I00
S'\x1c\x9e\x19='
tbag3
(g4
(I0
tS'b'
tRp1589
(I1
(tg7
I00
S'\xb6\n\x00='
tbag3
(g4
(I0
tS'b'
tRp1590
(I1
(tg7
I00
S'\xd28\xed<'
tbag3
(g4
(I0
tS'b'
tRp1591
(I1
(tg7
I00
S'\x12\xe0\xe1<'
tbag3
(g4
(I0
tS'b'
tRp1592
(I1
(tg7
I00
S'sZ\xf8<'
tbag3
(g4
(I0
tS'b'
tRp1593
(I1
(tg7
I00
S'\x14\xa7\x10='
tbag3
(g4
(I0
tS'b'
tRp1594
(I1
(tg7
I00
S'\xd6\xce\r='
tbag3
(g4
(I0
tS'b'
tRp1595
(I1
(tg7
I00
S'm\xaf%='
tbag3
(g4
(I0
tS'b'
tRp1596
(I1
(tg7
I00
S'Fo\x1d='
tbag3
(g4
(I0
tS'b'
tRp1597
(I1
(tg7
I00
S'\xf6\x19!='
tbag3
(g4
(I0
tS'b'
tRp1598
(I1
(tg7
I00
S'$N&='
tbag3
(g4
(I0
tS'b'
tRp1599
(I1
(tg7
I00
S'6`!='
tbag3
(g4
(I0
tS'b'
tRp1600
(I1
(tg7
I00
S'\x04\x80\x02='
tbag3
(g4
(I0
tS'b'
tRp1601
(I1
(tg7
I00
S'J\xa8\xf6<'
tbag3
(g4
(I0
tS'b'
tRp1602
(I1
(tg7
I00
S'\x00\xbd\x05='
tbag3
(g4
(I0
tS'b'
tRp1603
(I1
(tg7
I00
S'\xe1\x00\xfe<'
tbag3
(g4
(I0
tS'b'
tRp1604
(I1
(tg7
I00
S'\xd9\x88\x02='
tbag3
(g4
(I0
tS'b'
tRp1605
(I1
(tg7
I00
S'\xed#\x0b='
tbag3
(g4
(I0
tS'b'
tRp1606
(I1
(tg7
I00
S'\x905\x0e='
tbag3
(g4
(I0
tS'b'
tRp1607
(I1
(tg7
I00
S'o\xd6\t='
tbag3
(g4
(I0
tS'b'
tRp1608
(I1
(tg7
I00
S'\xedT\x07='
tbag3
(g4
(I0
tS'b'
tRp1609
(I1
(tg7
I00
S'R\x8c\x02='
tbag3
(g4
(I0
tS'b'
tRp1610
(I1
(tg7
I00
S'\xf9\xdb\x01='
tbag3
(g4
(I0
tS'b'
tRp1611
(I1
(tg7
I00
S'Y\xfb\xfe<'
tbag3
(g4
(I0
tS'b'
tRp1612
(I1
(tg7
I00
S'\xc0a\x02='
tbag3
(g4
(I0
tS'b'
tRp1613
(I1
(tg7
I00
S'\x0e\x88\xf4<'
tbag3
(g4
(I0
tS'b'
tRp1614
(I1
(tg7
I00
S'\xaf\x8e\x0c='
tbag3
(g4
(I0
tS'b'
tRp1615
(I1
(tg7
I00
S'~\xec\x1d='
tbag3
(g4
(I0
tS'b'
tRp1616
(I1
(tg7
I00
S'\x12\xc0 ='
tbag3
(g4
(I0
tS'b'
tRp1617
(I1
(tg7
I00
S'+\xdc%='
tbag3
(g4
(I0
tS'b'
tRp1618
(I1
(tg7
I00
S'{\xa0%='
tbag3
(g4
(I0
tS'b'
tRp1619
(I1
(tg7
I00
S'%\x93\x14='
tbag3
(g4
(I0
tS'b'
tRp1620
(I1
(tg7
I00
S'\xedA\t='
tbag3
(g4
(I0
tS'b'
tRp1621
(I1
(tg7
I00
S'\xe6\x0f\xef<'
tbag3
(g4
(I0
tS'b'
tRp1622
(I1
(tg7
I00
S'\xcb"\xcb<'
tbag3
(g4
(I0
tS'b'
tRp1623
(I1
(tg7
I00
S'*Z\xbe<'
tbag3
(g4
(I0
tS'b'
tRp1624
(I1
(tg7
I00
S'\xd0\xb4\xd4<'
tbag3
(g4
(I0
tS'b'
tRp1625
(I1
(tg7
I00
S'"\x81\x05='
tbag3
(g4
(I0
tS'b'
tRp1626
(I1
(tg7
I00
S'\x1bI\x1d='
tbag3
(g4
(I0
tS'b'
tRp1627
(I1
(tg7
I00
S'\x19h2='
tbag3
(g4
(I0
tS'b'
tRp1628
(I1
(tg7
I00
S'\xae\x19?='
tbag3
(g4
(I0
tS'b'
tRp1629
(I1
(tg7
I00
S'$(,='
tbag3
(g4
(I0
tS'b'
tRp1630
(I1
(tg7
I00
S'\x82\xa6\x06='
tbag3
(g4
(I0
tS'b'
tRp1631
(I1
(tg7
I00
S'\xf3\xd9\xf7<'
tbag3
(g4
(I0
tS'b'
tRp1632
(I1
(tg7
I00
S'\x05-\x03='
tbag3
(g4
(I0
tS'b'
tRp1633
(I1
(tg7
I00
S'ji\xf2<'
tbag3
(g4
(I0
tS'b'
tRp1634
(I1
(tg7
I00
S'J\xee\xe1<'
tbag3
(g4
(I0
tS'b'
tRp1635
(I1
(tg7
I00
S'R\x89\x0f='
tbag3
(g4
(I0
tS'b'
tRp1636
(I1
(tg7
I00
S'\xcd\xe1\x18='
tbag3
(g4
(I0
tS'b'
tRp1637
(I1
(tg7
I00
S'}1!='
tbag3
(g4
(I0
tS'b'
tRp1638
(I1
(tg7
I00
S'\xcf\xc2\x19='
tbag3
(g4
(I0
tS'b'
tRp1639
(I1
(tg7
I00
S';h\xfd<'
tbag3
(g4
(I0
tS'b'
tRp1640
(I1
(tg7
I00
S'\xe6\x10\xe9<'
tbag3
(g4
(I0
tS'b'
tRp1641
(I1
(tg7
I00
S'\x86H\xde<'
tbag3
(g4
(I0
tS'b'
tRp1642
(I1
(tg7
I00
S'o\xa0\xf3<'
tbag3
(g4
(I0
tS'b'
tRp1643
(I1
(tg7
I00
S'\x13\xc1\x0c='
tbag3
(g4
(I0
tS'b'
tRp1644
(I1
(tg7
I00
S'm\xc2\t='
tbag3
(g4
(I0
tS'b'
tRp1645
(I1
(tg7
I00
S"'\xc1 ="
tbag3
(g4
(I0
tS'b'
tRp1646
(I1
(tg7
I00
S'^\xf3\x19='
tbag3
(g4
(I0
tS'b'
tRp1647
(I1
(tg7
I00
S'\\v\x1d='
tbag3
(g4
(I0
tS'b'
tRp1648
(I1
(tg7
I00
S'\xe7\xad#='
tbag3
(g4
(I0
tS'b'
tRp1649
(I1
(tg7
I00
S'\x18\xb1\x1f='
tbag3
(g4
(I0
tS'b'
tRp1650
(I1
(tg7
I00
S'\xbb\x9e\x01='
tbag3
(g4
(I0
tS'b'
tRp1651
(I1
(tg7
I00
S'\x03\xd1\xf5<'
tbag3
(g4
(I0
tS'b'
tRp1652
(I1
(tg7
I00
S'h\x9f\x04='
tbag3
(g4
(I0
tS'b'
tRp1653
(I1
(tg7
I00
S'*\x13\xf9<'
tbag3
(g4
(I0
tS'b'
tRp1654
(I1
(tg7
I00
S'\xdbz\xfe<'
tbag3
(g4
(I0
tS'b'
tRp1655
(I1
(tg7
I00
S'\x89\xd3\x05='
tbag3
(g4
(I0
tS'b'
tRp1656
(I1
(tg7
I00
S'/\x84\t='
tbag3
(g4
(I0
tS'b'
tRp1657
(I1
(tg7
I00
S'\xb8\xa5\x05='
tbag3
(g4
(I0
tS'b'
tRp1658
(I1
(tg7
I00
S'\xf2E\x04='
tbag3
(g4
(I0
tS'b'
tRp1659
(I1
(tg7
I00
S'vr\x00='
tbag3
(g4
(I0
tS'b'
tRp1660
(I1
(tg7
I00
S'B\xc3\x00='
tbag3
(g4
(I0
tS'b'
tRp1661
(I1
(tg7
I00
S'\xbc\xaf\xfd<'
tbag3
(g4
(I0
tS'b'
tRp1662
(I1
(tg7
I00
S'\xbeU\x02='
tbag3
(g4
(I0
tS'b'
tRp1663
(I1
(tg7
I00
S'x%\xf5<'
tbag3
(g4
(I0
tS'b'
tRp1664
(I1
(tg7
I00
S'2Q\r='
tbag3
(g4
(I0
tS'b'
tRp1665
(I1
(tg7
I00
S',&\x1d='
tbag3
(g4
(I0
tS'b'
tRp1666
(I1
(tg7
I00
S'<!\x1e='
tbag3
(g4
(I0
tS'b'
tRp1667
(I1
(tg7
I00
S'\xe4\x14!='
tbag3
(g4
(I0
tS'b'
tRp1668
(I1
(tg7
I00
S'\xd5c ='
tbag3
(g4
(I0
tS'b'
tRp1669
(I1
(tg7
I00
S'\xf2\xe1\x0f='
tbag3
(g4
(I0
tS'b'
tRp1670
(I1
(tg7
I00
S'){\x05='
tbag3
(g4
(I0
tS'b'
tRp1671
(I1
(tg7
I00
S'\xa7\x8e\xe9<'
tbag3
(g4
(I0
tS'b'
tRp1672
(I1
(tg7
I00
S' \x17\xc7<'
tbag3
(g4
(I0
tS'b'
tRp1673
(I1
(tg7
I00
S'U\x8b\xba<'
tbag3
(g4
(I0
tS'b'
tRp1674
(I1
(tg7
I00
S'\x02\xea\xd1<'
tbag3
(g4
(I0
tS'b'
tRp1675
(I1
(tg7
I00
S'7\x1d\x04='
tbag3
(g4
(I0
tS'b'
tRp1676
(I1
(tg7
I00
S'W&\x1b='
tbag3
(g4
(I0
tS'b'
tRp1677
(I1
(tg7
I00
S'm\\0='
tbag3
(g4
(I0
tS'b'
tRp1678
(I1
(tg7
I00
S'\xe9>=='
tbag3
(g4
(I0
tS'b'
tRp1679
(I1
(tg7
I00
S'\x87\xb7)='
tbag3
(g4
(I0
tS'b'
tRp1680
(I1
(tg7
I00
S'= \x04='
tbag3
(g4
(I0
tS'b'
tRp1681
(I1
(tg7
I00
S'\x83\x96\xf4<'
tbag3
(g4
(I0
tS'b'
tRp1682
(I1
(tg7
I00
S'\xd4e\x00='
tbag3
(g4
(I0
tS'b'
tRp1683
(I1
(tg7
I00
S'\x93\x96\xeb<'
tbag3
(g4
(I0
tS'b'
tRp1684
(I1
(tg7
I00
S'\xb0\xef\xdb<'
tbag3
(g4
(I0
tS'b'
tRp1685
(I1
(tg7
I00
S'\x82\x81\x0b='
tbag3
(g4
(I0
tS'b'
tRp1686
(I1
(tg7
I00
S'\xd9I\x15='
tbag3
(g4
(I0
tS'b'
tRp1687
(I1
(tg7
I00
S'Na\x1e='
tbag3
(g4
(I0
tS'b'
tRp1688
(I1
(tg7
I00
S'\x1f \x18='
tbag3
(g4
(I0
tS'b'
tRp1689
(I1
(tg7
I00
S'\xde\x9c\xfa<'
tbag3
(g4
(I0
tS'b'
tRp1690
(I1
(tg7
I00
S'\x14\xfc\xe6<'
tbag3
(g4
(I0
tS'b'
tRp1691
(I1
(tg7
I00
S'\xd5X\xdc<'
tbag3
(g4
(I0
tS'b'
tRp1692
(I1
(tg7
I00
S'\xe2\xc4\xef<'
tbag3
(g4
(I0
tS'b'
tRp1693
(I1
(tg7
I00
S'\xe4X\n='
tbag3
(g4
(I0
tS'b'
tRp1694
(I1
(tg7
I00
S'\xf6<\x07='
tbag3
(g4
(I0
tS'b'
tRp1695
(I1
(tg7
I00
S']h\x1d='
tbag3
(g4
(I0
tS'b'
tRp1696
(I1
(tg7
I00
S'{\r\x17='
tbag3
(g4
(I0
tS'b'
tRp1697
(I1
(tg7
I00
S'\xee\xca\x19='
tbag3
(g4
(I0
tS'b'
tRp1698
(I1
(tg7
I00
S'$& ='
tbag3
(g4
(I0
tS'b'
tRp1699
(I1
(tg7
I00
S'\xf8\xf7\x1c='
tbag3
(g4
(I0
tS'b'
tRp1700
(I1
(tg7
I00
S'\xef\xcf\xff<'
tbag3
(g4
(I0
tS'b'
tRp1701
(I1
(tg7
I00
S'r\xae\xf3<'
tbag3
(g4
(I0
tS'b'
tRp1702
(I1
(tg7
I00
S'\x0f\x9b\x03='
tbag3
(g4
(I0
tS'b'
tRp1703
(I1
(tg7
I00
S'\xd3{\xf6<'
tbag3
(g4
(I0
tS'b'
tRp1704
(I1
(tg7
I00
S'\xf2\xb6\xfa<'
tbag3
(g4
(I0
tS'b'
tRp1705
(I1
(tg7
I00
S'\x11\x87\x03='
tbag3
(g4
(I0
tS'b'
tRp1706
(I1
(tg7
I00
S'/\x97\x06='
tbag3
(g4
(I0
tS'b'
tRp1707
(I1
(tg7
I00
S'\x12_\x02='
tbag3
(g4
(I0
tS'b'
tRp1708
(I1
(tg7
I00
S'D\xee\x00='
tbag3
(g4
(I0
tS'b'
tRp1709
(I1
(tg7
I00
S'\x02>\xfa<'
tbag3
(g4
(I0
tS'b'
tRp1710
(I1
(tg7
I00
S'f\xce\xfb<'
tbag3
(g4
(I0
tS'b'
tRp1711
(I1
(tg7
I00
S'\xd0"\xf9<'
tbag3
(g4
(I0
tS'b'
tRp1712
(I1
(tg7
I00
S'D\xa4\x00='
tbag3
(g4
(I0
tS'b'
tRp1713
(I1
(tg7
I00
S't\x8c\xf2<'
tbag3
(g4
(I0
tS'b'
tRp1714
(I1
(tg7
I00
S'\xcd\x00\r='
tbag3
(g4
(I0
tS'b'
tRp1715
(I1
(tg7
I00
S'\x9bh\x1c='
tbag3
(g4
(I0
tS'b'
tRp1716
(I1
(tg7
I00
S'\x85Z\x1c='
tbag3
(g4
(I0
tS'b'
tRp1717
(I1
(tg7
I00
S'U&\x1e='
tbag3
(g4
(I0
tS'b'
tRp1718
(I1
(tg7
I00
S'y\xba\x1d='
tbag3
(g4
(I0
tS'b'
tRp1719
(I1
(tg7
I00
S'0\xae\x0c='
tbag3
(g4
(I0
tS'b'
tRp1720
(I1
(tg7
I00
S'\x9d\xa9\x01='
tbag3
(g4
(I0
tS'b'
tRp1721
(I1
(tg7
I00
S'\\3\xe3<'
tbag3
(g4
(I0
tS'b'
tRp1722
(I1
(tg7
I00
S'i\x0c\xc2<'
tbag3
(g4
(I0
tS'b'
tRp1723
(I1
(tg7
I00
S'B\xc2\xb5<'
tbag3
(g4
(I0
tS'b'
tRp1724
(I1
(tg7
I00
S'\xceY\xcd<'
tbag3
(g4
(I0
tS'b'
tRp1725
(I1
(tg7
I00
S',\xc1\x01='
tbag3
(g4
(I0
tS'b'
tRp1726
(I1
(tg7
I00
S'\xeb(\x19='
tbag3
(g4
(I0
tS'b'
tRp1727
(I1
(tg7
I00
S'+i.='
tbag3
(g4
(I0
tS'b'
tRp1728
(I1
(tg7
I00
S'\xe9D;='
tbag3
(g4
(I0
tS'b'
tRp1729
(I1
(tg7
I00
S'\x92\xcf&='
tbag3
(g4
(I0
tS'b'
tRp1730
(I1
(tg7
I00
S'\x9f\x89\x02='
tbag3
(g4
(I0
tS'b'
tRp1731
(I1
(tg7
I00
S'\xec\xbd\xf3<'
tbag3
(g4
(I0
tS'b'
tRp1732
(I1
(tg7
I00
S'\xb4\x0b\xfe<'
tbag3
(g4
(I0
tS'b'
tRp1733
(I1
(tg7
I00
S'\xf0\xf6\xe7<'
tbag3
(g4
(I0
tS'b'
tRp1734
(I1
(tg7
I00
S'if\xd8<'
tbag3
(g4
(I0
tS'b'
tRp1735
(I1
(tg7
I00
S'HN\x08='
tbag3
(g4
(I0
tS'b'
tRp1736
(I1
(tg7
I00
S'g]\x11='
tbag3
(g4
(I0
tS'b'
tRp1737
(I1
(tg7
I00
S'~#\x1b='
tbag3
(g4
(I0
tS'b'
tRp1738
(I1
(tg7
I00
S'\xf2=\x15='
tbag3
(g4
(I0
tS'b'
tRp1739
(I1
(tg7
I00
S'em\xf5<'
tbag3
(g4
(I0
tS'b'
tRp1740
(I1
(tg7
I00
S'<Q\xe2<'
tbag3
(g4
(I0
tS'b'
tRp1741
(I1
(tg7
I00
S'\xe6\x12\xd9<'
tbag3
(g4
(I0
tS'b'
tRp1742
(I1
(tg7
I00
S'\t\x18\xec<'
tbag3
(g4
(I0
tS'b'
tRp1743
(I1
(tg7
I00
S'\xbd;\x08='
tbag3
(g4
(I0
tS'b'
tRp1744
(I1
(tg7
I00
S'\x1e\xd2\x05='
tbag3
(g4
(I0
tS'b'
tRp1745
(I1
(tg7
I00
S'\xc0\xd1\x1b='
tbag3
(g4
(I0
tS'b'
tRp1746
(I1
(tg7
I00
S'\xf9\xfd\x16='
tbag3
(g4
(I0
tS'b'
tRp1747
(I1
(tg7
I00
S'_J\x18='
tbag3
(g4
(I0
tS'b'
tRp1748
(I1
(tg7
I00
S'\x1a*\x1d='
tbag3
(g4
(I0
tS'b'
tRp1749
(I1
(tg7
I00
S'yq\x19='
tbag3
(g4
(I0
tS'b'
tRp1750
(I1
(tg7
I00
S'5e\xf9<'
tbag3
(g4
(I0
tS'b'
tRp1751
(I1
(tg7
I00
S'S\xbf\xec<'
tbag3
(g4
(I0
tS'b'
tRp1752
(I1
(tg7
I00
S'W\xc4\xff<'
tbag3
(g4
(I0
tS'b'
tRp1753
(I1
(tg7
I00
S'<\xdb\xee<'
tbag3
(g4
(I0
tS'b'
tRp1754
(I1
(tg7
I00
S'|8\xf4<'
tbag3
(g4
(I0
tS'b'
tRp1755
(I1
(tg7
I00
S'}\x86\x01='
tbag3
(g4
(I0
tS'b'
tRp1756
(I1
(tg7
I00
S'o\xe9\x04='
tbag3
(g4
(I0
tS'b'
tRp1757
(I1
(tg7
I00
S'=Z\x01='
tbag3
(g4
(I0
tS'b'
tRp1758
(I1
(tg7
I00
S'p\x92\xff<'
tbag3
(g4
(I0
tS'b'
tRp1759
(I1
(tg7
I00
S'\x85U\xf6<'
tbag3
(g4
(I0
tS'b'
tRp1760
(I1
(tg7
I00
S'+\x9a\xf8<'
tbag3
(g4
(I0
tS'b'
tRp1761
(I1
(tg7
I00
S'\xceJ\xf4<'
tbag3
(g4
(I0
tS'b'
tRp1762
(I1
(tg7
I00
S'\xd8\xc2\xfc<'
tbag3
(g4
(I0
tS'b'
tRp1763
(I1
(tg7
I00
S'\xf0{\xee<'
tbag3
(g4
(I0
tS'b'
tRp1764
(I1
(tg7
I00
S'Eq\n='
tbag3
(g4
(I0
tS'b'
tRp1765
(I1
(tg7
I00
S'\xde\xe3\x19='
tbag3
(g4
(I0
tS'b'
tRp1766
(I1
(tg7
I00
S'u\xc0\x19='
tbag3
(g4
(I0
tS'b'
tRp1767
(I1
(tg7
I00
S'\xed\x94\x1b='
tbag3
(g4
(I0
tS'b'
tRp1768
(I1
(tg7
I00
S'>\xa1\x1b='
tbag3
(g4
(I0
tS'b'
tRp1769
(I1
(tg7
I00
S'c\xaa\x0b='
tbag3
(g4
(I0
tS'b'
tRp1770
(I1
(tg7
I00
S'\xe8r\x01='
tbag3
(g4
(I0
tS'b'
tRp1771
(I1
(tg7
I00
S'\xdc\x90\xe1<'
tbag3
(g4
(I0
tS'b'
tRp1772
(I1
(tg7
I00
S'\xa5D\xc0<'
tbag3
(g4
(I0
tS'b'
tRp1773
(I1
(tg7
I00
S'\x05\xe7\xb2<'
tbag3
(g4
(I0
tS'b'
tRp1774
(I1
(tg7
I00
S'\xf8\xf4\xc9<'
tbag3
(g4
(I0
tS'b'
tRp1775
(I1
(tg7
I00
S'R.\xfd<'
tbag3
(g4
(I0
tS'b'
tRp1776
(I1
(tg7
I00
S'\xf4V\x13='
tbag3
(g4
(I0
tS'b'
tRp1777
(I1
(tg7
I00
S'a\x05)='
tbag3
(g4
(I0
tS'b'
tRp1778
(I1
(tg7
I00
S'\xf4\x9c6='
tbag3
(g4
(I0
tS'b'
tRp1779
(I1
(tg7
I00
S'\x1b\xfc"='
tbag3
(g4
(I0
tS'b'
tRp1780
(I1
(tg7
I00
S'o"\xff<'
tbag3
(g4
(I0
tS'b'
tRp1781
(I1
(tg7
I00
S'%\x9a\xf0<'
tbag3
(g4
(I0
tS'b'
tRp1782
(I1
(tg7
I00
S'\xe6\x8c\xfd<'
tbag3
(g4
(I0
tS'b'
tRp1783
(I1
(tg7
I00
S'$r\xe7<'
tbag3
(g4
(I0
tS'b'
tRp1784
(I1
(tg7
I00
S'`-\xd8<'
tbag3
(g4
(I0
tS'b'
tRp1785
(I1
(tg7
I00
S'\x02$\x08='
tbag3
(g4
(I0
tS'b'
tRp1786
(I1
(tg7
I00
S'\xb0\xa8\x10='
tbag3
(g4
(I0
tS'b'
tRp1787
(I1
(tg7
I00
S'~\xc2\x18='
tbag3
(g4
(I0
tS'b'
tRp1788
(I1
(tg7
I00
S'+\xa2\x11='
tbag3
(g4
(I0
tS'b'
tRp1789
(I1
(tg7
I00
S'[E\xee<'
tbag3
(g4
(I0
tS'b'
tRp1790
(I1
(tg7
I00
S'\x87\xb6\xdb<'
tbag3
(g4
(I0
tS'b'
tRp1791
(I1
(tg7
I00
S'\x817\xd4<'
tbag3
(g4
(I0
tS'b'
tRp1792
(I1
(tg7
I00
S'\xabs\xe7<'
tbag3
(g4
(I0
tS'b'
tRp1793
(I1
(tg7
I00
S'\xdd\xc7\x05='
tbag3
(g4
(I0
tS'b'
tRp1794
(I1
(tg7
I00
S'\xc6M\x04='
tbag3
(g4
(I0
tS'b'
tRp1795
(I1
(tg7
I00
S'\xdd\x1a\x1a='
tbag3
(g4
(I0
tS'b'
tRp1796
(I1
(tg7
I00
S'0\xcc\x15='
tbag3
(g4
(I0
tS'b'
tRp1797
(I1
(tg7
I00
S'\xcfe\x15='
tbag3
(g4
(I0
tS'b'
tRp1798
(I1
(tg7
I00
S'\xb9\x7f\x1a='
tbag3
(g4
(I0
tS'b'
tRp1799
(I1
(tg7
I00
S'\x80\x1a\x17='
tbag3
(g4
(I0
tS'b'
tRp1800
(I1
(tg7
I00
S'\xa6\xc7\xf5<'
tbag3
(g4
(I0
tS'b'
tRp1801
(I1
(tg7
I00
S'l3\xe9<'
tbag3
(g4
(I0
tS'b'
tRp1802
(I1
(tg7
I00
S'J\xe2\xfb<'
tbag3
(g4
(I0
tS'b'
tRp1803
(I1
(tg7
I00
S'\xb7\x06\xea<'
tbag3
(g4
(I0
tS'b'
tRp1804
(I1
(tg7
I00
S'\xeb\x92\xef<'
tbag3
(g4
(I0
tS'b'
tRp1805
(I1
(tg7
I00
S'\x03\x02\xfe<'
tbag3
(g4
(I0
tS'b'
tRp1806
(I1
(tg7
I00
S'\xa7d\x02='
tbag3
(g4
(I0
tS'b'
tRp1807
(I1
(tg7
I00
S'\xab\xb7\xfe<'
tbag3
(g4
(I0
tS'b'
tRp1808
(I1
(tg7
I00
S')U\xfd<'
tbag3
(g4
(I0
tS'b'
tRp1809
(I1
(tg7
I00
S'\xc1\xcb\xf4<'
tbag3
(g4
(I0
tS'b'
tRp1810
(I1
(tg7
I00
S'\xae\xe1\xf6<'
tbag3
(g4
(I0
tS'b'
tRp1811
(I1
(tg7
I00
S'\x9cq\xf0<'
tbag3
(g4
(I0
tS'b'
tRp1812
(I1
(tg7
I00
S'\x8e$\xf7<'
tbag3
(g4
(I0
tS'b'
tRp1813
(I1
(tg7
I00
S'\x0c\xb3\xe5<'
tbag3
(g4
(I0
tS'b'
tRp1814
(I1
(tg7
I00
S'\x86@\x06='
tbag3
(g4
(I0
tS'b'
tRp1815
(I1
(tg7
I00
S'\x03\xb1\x16='
tbag3
(g4
(I0
tS'b'
tRp1816
(I1
(tg7
I00
S'T-\x17='
tbag3
(g4
(I0
tS'b'
tRp1817
(I1
(tg7
I00
S'\xdf\x13\x1a='
tbag3
(g4
(I0
tS'b'
tRp1818
(I1
(tg7
I00
S'\x93k\x1a='
tbag3
(g4
(I0
tS'b'
tRp1819
(I1
(tg7
I00
S'\xc6\xf0\n='
tbag3
(g4
(I0
tS'b'
tRp1820
(I1
(tg7
I00
S'\x99\xc6\x00='
tbag3
(g4
(I0
tS'b'
tRp1821
(I1
(tg7
I00
S'x\xf9\xdf<'
tbag3
(g4
(I0
tS'b'
tRp1822
(I1
(tg7
I00
S'R(\xbe<'
tbag3
(g4
(I0
tS'b'
tRp1823
(I1
(tg7
I00
S'\xb6\xf0\xaf<'
tbag3
(g4
(I0
tS'b'
tRp1824
(I1
(tg7
I00
S'-H\xc6<'
tbag3
(g4
(I0
tS'b'
tRp1825
(I1
(tg7
I00
S'\x1e\x94\xf7<'
tbag3
(g4
(I0
tS'b'
tRp1826
(I1
(tg7
I00
S'`\xd5\x0f='
tbag3
(g4
(I0
tS'b'
tRp1827
(I1
(tg7
I00
S'\xdb"%='
tbag3
(g4
(I0
tS'b'
tRp1828
(I1
(tg7
I00
S'J[3='
tbag3
(g4
(I0
tS'b'
tRp1829
(I1
(tg7
I00
S'\xdd\xda\x1f='
tbag3
(g4
(I0
tS'b'
tRp1830
(I1
(tg7
I00
S'\x98\x00\xfc<'
tbag3
(g4
(I0
tS'b'
tRp1831
(I1
(tg7
I00
S'\x19;\xec<'
tbag3
(g4
(I0
tS'b'
tRp1832
(I1
(tg7
I00
S'\xab\x7f\xf7<'
tbag3
(g4
(I0
tS'b'
tRp1833
(I1
(tg7
I00
S'\xb4\xb6\xe3<'
tbag3
(g4
(I0
tS'b'
tRp1834
(I1
(tg7
I00
S'f\x08\xd6<'
tbag3
(g4
(I0
tS'b'
tRp1835
(I1
(tg7
I00
S'8\xe8\x06='
tbag3
(g4
(I0
tS'b'
tRp1836
(I1
(tg7
I00
S'T\x91\x0f='
tbag3
(g4
(I0
tS'b'
tRp1837
(I1
(tg7
I00
S'+\xe3\x16='
tbag3
(g4
(I0
tS'b'
tRp1838
(I1
(tg7
I00
S'@\x15\x10='
tbag3
(g4
(I0
tS'b'
tRp1839
(I1
(tg7
I00
S'\x07\x8d\xea<'
tbag3
(g4
(I0
tS'b'
tRp1840
(I1
(tg7
I00
S'\xa4\xfc\xd7<'
tbag3
(g4
(I0
tS'b'
tRp1841
(I1
(tg7
I00
S'\x1dJ\xd0<'
tbag3
(g4
(I0
tS'b'
tRp1842
(I1
(tg7
I00
S'U\xf3\xe2<'
tbag3
(g4
(I0
tS'b'
tRp1843
(I1
(tg7
I00
S'\xa6\xee\x02='
tbag3
(g4
(I0
tS'b'
tRp1844
(I1
(tg7
I00
S';\xf3\x01='
tbag3
(g4
(I0
tS'b'
tRp1845
(I1
(tg7
I00
S'\xc3>\x17='
tbag3
(g4
(I0
tS'b'
tRp1846
(I1
(tg7
I00
S'\xe0\xab\x13='
tbag3
(g4
(I0
tS'b'
tRp1847
(I1
(tg7
I00
S'Ku\x13='
tbag3
(g4
(I0
tS'b'
tRp1848
(I1
(tg7
I00
S'%\x9d\x16='
tbag3
(g4
(I0
tS'b'
tRp1849
(I1
(tg7
I00
S'\x8a\x02\x14='
tbag3
(g4
(I0
tS'b'
tRp1850
(I1
(tg7
I00
S'A\xc2\xf1<'
tbag3
(g4
(I0
tS'b'
tRp1851
(I1
(tg7
I00
S'4\x08\xe5<'
tbag3
(g4
(I0
tS'b'
tRp1852
(I1
(tg7
I00
S'\xcah\xf7<'
tbag3
(g4
(I0
tS'b'
tRp1853
(I1
(tg7
I00
S'\x93\xdd\xe4<'
tbag3
(g4
(I0
tS'b'
tRp1854
(I1
(tg7
I00
S'\t}\xeb<'
tbag3
(g4
(I0
tS'b'
tRp1855
(I1
(tg7
I00
S'\xc2\xd2\xfb<'
tbag3
(g4
(I0
tS'b'
tRp1856
(I1
(tg7
I00
S'\xab\x8f\x00='
tbag3
(g4
(I0
tS'b'
tRp1857
(I1
(tg7
I00
S'\xaa\x88\xfb<'
tbag3
(g4
(I0
tS'b'
tRp1858
(I1
(tg7
I00
S'\xf8\xec\xf8<'
tbag3
(g4
(I0
tS'b'
tRp1859
(I1
(tg7
I00
S'\x17\xfb\xee<'
tbag3
(g4
(I0
tS'b'
tRp1860
(I1
(tg7
I00
S'%\x0f\xf2<'
tbag3
(g4
(I0
tS'b'
tRp1861
(I1
(tg7
I00
S'\xe7(\xea<'
tbag3
(g4
(I0
tS'b'
tRp1862
(I1
(tg7
I00
S'\xbb\x13\xf3<'
tbag3
(g4
(I0
tS'b'
tRp1863
(I1
(tg7
I00
S'n\xcb\xe3<'
tbag3
(g4
(I0
tS'b'
tRp1864
(I1
(tg7
I00
S'Im\x06='
tbag3
(g4
(I0
tS'b'
tRp1865
(I1
(tg7
I00
S'\xfb\x8d\x16='
tbag3
(g4
(I0
tS'b'
tRp1866
(I1
(tg7
I00
S'Mw\x15='
tbag3
(g4
(I0
tS'b'
tRp1867
(I1
(tg7
I00
S'\x8c=\x17='
tbag3
(g4
(I0
tS'b'
tRp1868
(I1
(tg7
I00
S'\xc2\xa3\x17='
tbag3
(g4
(I0
tS'b'
tRp1869
(I1
(tg7
I00
S'\xe9\t\t='
tbag3
(g4
(I0
tS'b'
tRp1870
(I1
(tg7
I00
S'\xdeg\xfb<'
tbag3
(g4
(I0
tS'b'
tRp1871
(I1
(tg7
I00
S'\xe7:\xda<'
tbag3
(g4
(I0
tS'b'
tRp1872
(I1
(tg7
I00
S'\xd8e\xba<'
tbag3
(g4
(I0
tS'b'
tRp1873
(I1
(tg7
I00
S'O\x99\xab<'
tbag3
(g4
(I0
tS'b'
tRp1874
(I1
(tg7
I00
S'\x82S\xc2<'
tbag3
(g4
(I0
tS'b'
tRp1875
(I1
(tg7
I00
S'\x03\xa6\xf3<'
tbag3
(g4
(I0
tS'b'
tRp1876
(I1
(tg7
I00
S'\x80d\r='
tbag3
(g4
(I0
tS'b'
tRp1877
(I1
(tg7
I00
S'\xc9\xd8!='
tbag3
(g4
(I0
tS'b'
tRp1878
(I1
(tg7
I00
S'\x86\xaa0='
tbag3
(g4
(I0
tS'b'
tRp1879
(I1
(tg7
I00
S'\xac\xf0\x1c='
tbag3
(g4
(I0
tS'b'
tRp1880
(I1
(tg7
I00
S'\x0fM\xf9<'
tbag3
(g4
(I0
tS'b'
tRp1881
(I1
(tg7
I00
S'\xa5A\xed<'
tbag3
(g4
(I0
tS'b'
tRp1882
(I1
(tg7
I00
S'c\x16\xf6<'
tbag3
(g4
(I0
tS'b'
tRp1883
(I1
(tg7
I00
S'!\x19\xe0<'
tbag3
(g4
(I0
tS'b'
tRp1884
(I1
(tg7
I00
S'\xc0\xe0\xd2<'
tbag3
(g4
(I0
tS'b'
tRp1885
(I1
(tg7
I00
S'0$\x04='
tbag3
(g4
(I0
tS'b'
tRp1886
(I1
(tg7
I00
S'\xfa\t\x0c='
tbag3
(g4
(I0
tS'b'
tRp1887
(I1
(tg7
I00
S'W\x99\x13='
tbag3
(g4
(I0
tS'b'
tRp1888
(I1
(tg7
I00
S'^\xef\r='
tbag3
(g4
(I0
tS'b'
tRp1889
(I1
(tg7
I00
S'\xea\xdc\xe7<'
tbag3
(g4
(I0
tS'b'
tRp1890
(I1
(tg7
I00
S'\x17E\xd5<'
tbag3
(g4
(I0
tS'b'
tRp1891
(I1
(tg7
I00
S'\xde\xd7\xcd<'
tbag3
(g4
(I0
tS'b'
tRp1892
(I1
(tg7
I00
S'\x0b\xb5\xe0<'
tbag3
(g4
(I0
tS'b'
tRp1893
(I1
(tg7
I00
S'R\xcb\x00='
tbag3
(g4
(I0
tS'b'
tRp1894
(I1
(tg7
I00
S'\xdes\xff<'
tbag3
(g4
(I0
tS'b'
tRp1895
(I1
(tg7
I00
S'\x8d\xb2\x14='
tbag3
(g4
(I0
tS'b'
tRp1896
(I1
(tg7
I00
S'\xe4\xb7\x11='
tbag3
(g4
(I0
tS'b'
tRp1897
(I1
(tg7
I00
S'\x90)\x10='
tbag3
(g4
(I0
tS'b'
tRp1898
(I1
(tg7
I00
S'u;\x11='
tbag3
(g4
(I0
tS'b'
tRp1899
(I1
(tg7
I00
S'\x98o\x0f='
tbag3
(g4
(I0
tS'b'
tRp1900
(I1
(tg7
I00
S'\x0c\xab\xec<'
tbag3
(g4
(I0
tS'b'
tRp1901
(I1
(tg7
I00
S'\xbb\xa9\xe2<'
tbag3
(g4
(I0
tS'b'
tRp1902
(I1
(tg7
I00
S'\xce\xa9\xf6<'
tbag3
(g4
(I0
tS'b'
tRp1903
(I1
(tg7
I00
S's\xd7\xe4<'
tbag3
(g4
(I0
tS'b'
tRp1904
(I1
(tg7
I00
S'a)\xeb<'
tbag3
(g4
(I0
tS'b'
tRp1905
(I1
(tg7
I00
S'0r\xfa<'
tbag3
(g4
(I0
tS'b'
tRp1906
(I1
(tg7
I00
S'la\xfd<'
tbag3
(g4
(I0
tS'b'
tRp1907
(I1
(tg7
I00
S'\x1be\xf6<'
tbag3
(g4
(I0
tS'b'
tRp1908
(I1
(tg7
I00
S'8\xc2\xf1<'
tbag3
(g4
(I0
tS'b'
tRp1909
(I1
(tg7
I00
S'\xb5\xbe\xe5<'
tbag3
(g4
(I0
tS'b'
tRp1910
(I1
(tg7
I00
S'\xa2\x02\xeb<'
tbag3
(g4
(I0
tS'b'
tRp1911
(I1
(tg7
I00
S'\x06\xd0\xe8<'
tbag3
(g4
(I0
tS'b'
tRp1912
(I1
(tg7
I00
S'\xb7\xdc\xf0<'
tbag3
(g4
(I0
tS'b'
tRp1913
(I1
(tg7
I00
S'\x17D\xe5<'
tbag3
(g4
(I0
tS'b'
tRp1914
(I1
(tg7
I00
S'Ub\x06='
tbag3
(g4
(I0
tS'b'
tRp1915
(I1
(tg7
I00
S'vn\x14='
tbag3
(g4
(I0
tS'b'
tRp1916
(I1
(tg7
I00
S'\x9b\x1c\x12='
tbag3
(g4
(I0
tS'b'
tRp1917
(I1
(tg7
I00
S'\xb3\x11\x13='
tbag3
(g4
(I0
tS'b'
tRp1918
(I1
(tg7
I00
S'C\x1d\x14='
tbag3
(g4
(I0
tS'b'
tRp1919
(I1
(tg7
I00
S'\xee\x98\x04='
tbag3
(g4
(I0
tS'b'
tRp1920
(I1
(tg7
I00
S'\xd5f\xf5<'
tbag3
(g4
(I0
tS'b'
tRp1921
(I1
(tg7
I00
S'r\xf6\xd6<'
tbag3
(g4
(I0
tS'b'
tRp1922
(I1
(tg7
I00
S'.\xa1\xb7<'
tbag3
(g4
(I0
tS'b'
tRp1923
(I1
(tg7
I00
S'P\x7f\xa9<'
tbag3
(g4
(I0
tS'b'
tRp1924
(I1
(tg7
I00
S'\xa5\r\xc1<'
tbag3
(g4
(I0
tS'b'
tRp1925
(I1
(tg7
I00
S'\xf4\xc5\xf2<'
tbag3
(g4
(I0
tS'b'
tRp1926
(I1
(tg7
I00
S'\x91\xa4\x0c='
tbag3
(g4
(I0
tS'b'
tRp1927
(I1
(tg7
I00
S'\xa1)!='
tbag3
(g4
(I0
tS'b'
tRp1928
(I1
(tg7
I00
S'T\x10/='
tbag3
(g4
(I0
tS'b'
tRp1929
(I1
(tg7
I00
S'3\x14\x19='
tbag3
(g4
(I0
tS'b'
tRp1930
(I1
(tg7
I00
S'\x95\xe6\xf1<'
tbag3
(g4
(I0
tS'b'
tRp1931
(I1
(tg7
I00
S'\xd5\xb8\xe8<'
tbag3
(g4
(I0
tS'b'
tRp1932
(I1
(tg7
I00
S'\x92\x02\xf1<'
tbag3
(g4
(I0
tS'b'
tRp1933
(I1
(tg7
I00
S'\xd4\xba\xdb<'
tbag3
(g4
(I0
tS'b'
tRp1934
(I1
(tg7
I00
S'\xe7\xe7\xcf<'
tbag3
(g4
(I0
tS'b'
tRp1935
(I1
(tg7
I00
S'\xa4\xdc\x02='
tbag3
(g4
(I0
tS'b'
tRp1936
(I1
(tg7
I00
S'\xdf\xcf\n='
tbag3
(g4
(I0
tS'b'
tRp1937
(I1
(tg7
I00
S'\xfe\xce\x11='
tbag3
(g4
(I0
tS'b'
tRp1938
(I1
(tg7
I00
S'9\xf7\x0b='
tbag3
(g4
(I0
tS'b'
tRp1939
(I1
(tg7
I00
S'\x94\xae\xe3<'
tbag3
(g4
(I0
tS'b'
tRp1940
(I1
(tg7
I00
S'\xb0\xda\xd1<'
tbag3
(g4
(I0
tS'b'
tRp1941
(I1
(tg7
I00
S'\xf2\xa9\xc9<'
tbag3
(g4
(I0
tS'b'
tRp1942
(I1
(tg7
I00
S'\xc20\xdb<'
tbag3
(g4
(I0
tS'b'
tRp1943
(I1
(tg7
I00
S'\x18\x06\xfc<'
tbag3
(g4
(I0
tS'b'
tRp1944
(I1
(tg7
I00
S'~\xf0\xfb<'
tbag3
(g4
(I0
tS'b'
tRp1945
(I1
(tg7
I00
S'\t\xf1\x12='
tbag3
(g4
(I0
tS'b'
tRp1946
(I1
(tg7
I00
S'\xa2\xa5\x10='
tbag3
(g4
(I0
tS'b'
tRp1947
(I1
(tg7
I00
S'\x99S\x0f='
tbag3
(g4
(I0
tS'b'
tRp1948
(I1
(tg7
I00
S'\x0c.\x10='
tbag3
(g4
(I0
tS'b'
tRp1949
(I1
(tg7
I00
S'\x86\xf4\r='
tbag3
(g4
(I0
tS'b'
tRp1950
(I1
(tg7
I00
S'c\xb9\xe8<'
tbag3
(g4
(I0
tS'b'
tRp1951
(I1
(tg7
I00
S"\x04'\xde<"
tbag3
(g4
(I0
tS'b'
tRp1952
(I1
(tg7
I00
S'\xb2`\xf1<'
tbag3
(g4
(I0
tS'b'
tRp1953
(I1
(tg7
I00
S'\xf7h\xdf<'
tbag3
(g4
(I0
tS'b'
tRp1954
(I1
(tg7
I00
S'\xe1&\xe5<'
tbag3
(g4
(I0
tS'b'
tRp1955
(I1
(tg7
I00
S'U\xd0\xf3<'
tbag3
(g4
(I0
tS'b'
tRp1956
(I1
(tg7
I00
S'\xf3\xa3\xf8<'
tbag3
(g4
(I0
tS'b'
tRp1957
(I1
(tg7
I00
S'\x0fH\xf3<'
tbag3
(g4
(I0
tS'b'
tRp1958
(I1
(tg7
I00
S'\x1d\x84\xef<'
tbag3
(g4
(I0
tS'b'
tRp1959
(I1
(tg7
I00
S'\xe5\xf7\xe2<'
tbag3
(g4
(I0
tS'b'
tRp1960
(I1
(tg7
I00
S'\x87q\xe9<'
tbag3
(g4
(I0
tS'b'
tRp1961
(I1
(tg7
I00
S'rE\xe8<'
tbag3
(g4
(I0
tS'b'
tRp1962
(I1
(tg7
I00
S'bu\xef<'
tbag3
(g4
(I0
tS'b'
tRp1963
(I1
(tg7
I00
S'\xa9\x83\xe3<'
tbag3
(g4
(I0
tS'b'
tRp1964
(I1
(tg7
I00
S'\xef \x05='
tbag3
(g4
(I0
tS'b'
tRp1965
(I1
(tg7
I00
S'g\x9b\x11='
tbag3
(g4
(I0
tS'b'
tRp1966
(I1
(tg7
I00
S'/\xf0\r='
tbag3
(g4
(I0
tS'b'
tRp1967
(I1
(tg7
I00
S'\x8a\x0f\x0f='
tbag3
(g4
(I0
tS'b'
tRp1968
(I1
(tg7
I00
S'\x80R\x11='
tbag3
(g4
(I0
tS'b'
tRp1969
(I1
(tg7
I00
S'L\xb8\xfd<'
tbag3
(g4
(I0
tS'b'
tRp1970
(I1
(tg7
I00
S'3\xbd\xed<'
tbag3
(g4
(I0
tS'b'
tRp1971
(I1
(tg7
I00
S'g\xb0\xd3<'
tbag3
(g4
(I0
tS'b'
tRp1972
(I1
(tg7
I00
S'\x80J\xb5<'
tbag3
(g4
(I0
tS'b'
tRp1973
(I1
(tg7
I00
S't_\xa8<'
tbag3
(g4
(I0
tS'b'
tRp1974
(I1
(tg7
I00
S'\xea\xa7\xc1<'
tbag3
(g4
(I0
tS'b'
tRp1975
(I1
(tg7
I00
S'\x07\xaa\xf6<'
tbag3
(g4
(I0
tS'b'
tRp1976
(I1
(tg7
I00
S'\xbb\x8e\x0e='
tbag3
(g4
(I0
tS'b'
tRp1977
(I1
(tg7
I00
S'\xcdb!='
tbag3
(g4
(I0
tS'b'
tRp1978
(I1
(tg7
I00
S'A\xdc+='
tbag3
(g4
(I0
tS'b'
tRp1979
(I1
(tg7
I00
S'W\xf9\x15='
tbag3
(g4
(I0
tS'b'
tRp1980
(I1
(tg7
I00
S'\xd2e\xeb<'
tbag3
(g4
(I0
tS'b'
tRp1981
(I1
(tg7
I00
S'\xcc\x8f\xe1<'
tbag3
(g4
(I0
tS'b'
tRp1982
(I1
(tg7
I00
S'\x01\x8d\xe9<'
tbag3
(g4
(I0
tS'b'
tRp1983
(I1
(tg7
I00
S'\x1b\x12\xd6<'
tbag3
(g4
(I0
tS'b'
tRp1984
(I1
(tg7
I00
S'g\x03\xca<'
tbag3
(g4
(I0
tS'b'
tRp1985
(I1
(tg7
I00
S'\x9dV\xff<'
tbag3
(g4
(I0
tS'b'
tRp1986
(I1
(tg7
I00
S'\xc5\x8c\x08='
tbag3
(g4
(I0
tS'b'
tRp1987
(I1
(tg7
I00
S'\x13F\x10='
tbag3
(g4
(I0
tS'b'
tRp1988
(I1
(tg7
I00
S'\xcd"\x0b='
tbag3
(g4
(I0
tS'b'
tRp1989
(I1
(tg7
I00
S'R\xa1\xe2<'
tbag3
(g4
(I0
tS'b'
tRp1990
(I1
(tg7
I00
S'\x13F\xd1<'
tbag3
(g4
(I0
tS'b'
tRp1991
(I1
(tg7
I00
S'X\xa0\xc9<'
tbag3
(g4
(I0
tS'b'
tRp1992
(I1
(tg7
I00
S'o|\xdb<'
tbag3
(g4
(I0
tS'b'
tRp1993
(I1
(tg7
I00
S'8\x1e\xfb<'
tbag3
(g4
(I0
tS'b'
tRp1994
(I1
(tg7
I00
S'w\xc0\xf7<'
tbag3
(g4
(I0
tS'b'
tRp1995
(I1
(tg7
I00
S'\xf0\x10\x0f='
tbag3
(g4
(I0
tS'b'
tRp1996
(I1
(tg7
I00
S'\xcd\xeb\x0c='
tbag3
(g4
(I0
tS'b'
tRp1997
(I1
(tg7
I00
S'\x1b\xaf\x0b='
tbag3
(g4
(I0
tS'b'
tRp1998
(I1
(tg7
I00
S'\x18&\x0e='
tbag3
(g4
(I0
tS'b'
tRp1999
(I1
(tg7
I00
S'\xd6;\x0c='
tbag3
(g4
(I0
tS'b'
tRp2000
(I1
(tg7
I00
S'\xe2\xef\xe6<'
tbag3
(g4
(I0
tS'b'
tRp2001
(I1
(tg7
I00
S'\x9b?\xdb<'
tbag3
(g4
(I0
tS'b'
tRp2002
(I1
(tg7
I00
S'\xb0\xed\xee<'
tbag3
(g4
(I0
tS'b'
tRp2003
(I1
(tg7
I00
S'\xfd\x88\xdc<'
tbag3
(g4
(I0
tS'b'
tRp2004
(I1
(tg7
I00
S'\x9e\xf5\xe1<'
tbag3
(g4
(I0
tS'b'
tRp2005
(I1
(tg7
I00
S'X\xb3\xef<'
tbag3
(g4
(I0
tS'b'
tRp2006
(I1
(tg7
I00
S'\x99\x8a\xf4<'
tbaa.